---
triple:          'arm64-apple-darwin'
binary-path:     '/Users/PC/Desktop/practice/cp'
relocations:
  - { offsetInCU: 0x6741, offset: 0x6741, size: 0x8, addend: 0x0, symName: __ZNSt3__17advanceB7v160006INS_21__tree_const_iteratorINS_12basic_stringIcNS_11char_traitsIcEENS_9allocatorIcEEEEPNS_11__tree_nodeIS7_PvEElEEllvEEvRT_T0_, symObjAddr: 0x4F28, symBinAddr: 0x100006264, symSize: 0x50 }
  - { offsetInCU: 0x67D2, offset: 0x67D2, size: 0x8, addend: 0x0, symName: __ZNSt3__124__put_character_sequenceB7v160006IcNS_11char_traitsIcEEEERNS_13basic_ostreamIT_T0_EES7_PKS4_m, symObjAddr: 0x5B84, symBinAddr: 0x100006EC0, symSize: 0x1F4 }
  - { offsetInCU: 0x8066, offset: 0x8066, size: 0x8, addend: 0x0, symName: __ZNSt3__1rsB7v160006IcNS_11char_traitsIcEENS_9allocatorIcEEEERNS_13basic_istreamIT_T0_EES9_RNS_12basic_stringIS6_S7_T1_EE, symObjAddr: 0x418, symBinAddr: 0x100001754, symSize: 0x324 }
  - { offsetInCU: 0x8135, offset: 0x8135, size: 0x8, addend: 0x0, symName: __ZNSt3__116set_intersectionB7v160006INS_21__tree_const_iteratorINS_12basic_stringIcNS_11char_traitsIcEENS_9allocatorIcEEEEPNS_11__tree_nodeIS7_PvEElEESC_NS_15insert_iteratorINS_3setIS7_NS_4lessIS7_EENS5_IS7_EEEEEEEET1_T_SL_T0_SM_SK_, symObjAddr: 0x850, symBinAddr: 0x100001B8C, symSize: 0x98 }
  - { offsetInCU: 0x81B4, offset: 0x81B4, size: 0x8, addend: 0x0, symName: __ZNSt3__18inserterB7v160006INS_3setINS_12basic_stringIcNS_11char_traitsIcEENS_9allocatorIcEEEENS_4lessIS7_EENS5_IS7_EEEEEENS_15insert_iteratorIT_EERSD_NSD_8iteratorE, symObjAddr: 0x958, symBinAddr: 0x100001C94, symSize: 0x40 }
  - { offsetInCU: 0x81F7, offset: 0x81F7, size: 0x8, addend: 0x0, symName: __ZNSt3__1neB7v160006ERKNS_21__tree_const_iteratorINS_12basic_stringIcNS_11char_traitsIcEENS_9allocatorIcEEEEPNS_11__tree_nodeIS6_PvEElEESD_, symObjAddr: 0xA18, symBinAddr: 0x100001D54, symSize: 0x34 }
  - { offsetInCU: 0x8234, offset: 0x8234, size: 0x8, addend: 0x0, symName: __ZNSt3__1lsB7v160006IcNS_11char_traitsIcEENS_9allocatorIcEEEERNS_13basic_ostreamIT_T0_EES9_RKNS_12basic_stringIS6_S7_T1_EE, symObjAddr: 0xA74, symBinAddr: 0x100001DB0, symSize: 0x4C }
  - { offsetInCU: 0x828C, offset: 0x828C, size: 0x8, addend: 0x0, symName: __ZNSt3__14endlB7v160006IcNS_11char_traitsIcEEEERNS_13basic_ostreamIT_T0_EES7_, symObjAddr: 0xAEC, symBinAddr: 0x100001E28, symSize: 0x58 }
  - { offsetInCU: 0x82CC, offset: 0x82CC, size: 0x8, addend: 0x0, symName: __ZNSt3__122__make_exception_guardB7v160006INS_6vectorINS_3setINS_12basic_stringIcNS_11char_traitsIcEENS_9allocatorIcEEEENS_4lessIS8_EENS6_IS8_EEEENS6_ISC_EEE16__destroy_vectorEEENS_28__exception_guard_exceptionsIT_EESH_, symObjAddr: 0xCCC, symBinAddr: 0x100002008, symSize: 0x40 }
  - { offsetInCU: 0x8301, offset: 0x8301, size: 0x8, addend: 0x0, symName: __ZNSt3__119__debug_db_insert_cB7v160006INS_6vectorINS_3setINS_12basic_stringIcNS_11char_traitsIcEENS_9allocatorIcEEEENS_4lessIS8_EENS6_IS8_EEEENS6_ISC_EEEEEEvPT_, symObjAddr: 0xD40, symBinAddr: 0x10000207C, symSize: 0x10 }
  - { offsetInCU: 0x8332, offset: 0x8332, size: 0x8, addend: 0x0, symName: __ZNSt3__119__allocate_at_leastB7v160006INS_9allocatorINS_3setINS_12basic_stringIcNS_11char_traitsIcEENS1_IcEEEENS_4lessIS7_EENS1_IS7_EEEEEEEENS_19__allocation_resultINS_16allocator_traitsIT_E7pointerEEERSF_m, symObjAddr: 0x10EC, symBinAddr: 0x100002428, symSize: 0x40 }
  - { offsetInCU: 0x8375, offset: 0x8375, size: 0x8, addend: 0x0, symName: __ZNSt3__13minB7v160006ImEERKT_S3_S3_, symObjAddr: 0x1244, symBinAddr: 0x100002580, symSize: 0x2C }
  - { offsetInCU: 0x85B9, offset: 0x85B9, size: 0x8, addend: 0x0, symName: __ZNSt3__13minB7v160006ImNS_6__lessImmEEEERKT_S5_S5_T0_, symObjAddr: 0x12D0, symBinAddr: 0x10000260C, symSize: 0x54 }
  - { offsetInCU: 0x864E, offset: 0x864E, size: 0x8, addend: 0x0, symName: __ZNSt3__120__throw_length_errorB7v160006EPKc, symObjAddr: 0x13B0, symBinAddr: 0x1000026EC, symSize: 0x64 }
  - { offsetInCU: 0x8676, offset: 0x8676, size: 0x8, addend: 0x0, symName: __ZNSt3__130__libcpp_is_constant_evaluatedB7v160006Ev, symObjAddr: 0x1554, symBinAddr: 0x100002890, symSize: 0xC }
  - { offsetInCU: 0x8693, offset: 0x8693, size: 0x8, addend: 0x0, symName: __ZNSt3__117__libcpp_allocateB7v160006Emm, symObjAddr: 0x1560, symBinAddr: 0x10000289C, symSize: 0x28 }
  - { offsetInCU: 0x86D0, offset: 0x86D0, size: 0x8, addend: 0x0, symName: __ZNSt3__121__libcpp_operator_newB7v160006IJmEEEPvDpT_, symObjAddr: 0x1588, symBinAddr: 0x1000028C4, symSize: 0x24 }
  - { offsetInCU: 0x8709, offset: 0x8709, size: 0x8, addend: 0x0, symName: __ZNSt3__112__to_addressB7v160006INS_3setINS_12basic_stringIcNS_11char_traitsIcEENS_9allocatorIcEEEENS_4lessIS7_EENS5_IS7_EEEEEEPT_SD_, symObjAddr: 0x16A4, symBinAddr: 0x1000029E0, symSize: 0x14 }
  - { offsetInCU: 0x873E, offset: 0x873E, size: 0x8, addend: 0x0, symName: __ZNSt3__118__debug_db_erase_cB7v160006INS_6vectorINS_3setINS_12basic_stringIcNS_11char_traitsIcEENS_9allocatorIcEEEENS_4lessIS8_EENS6_IS8_EEEENS6_ISC_EEEEEEvPT_, symObjAddr: 0x19F8, symBinAddr: 0x100002D34, symSize: 0x10 }
  - { offsetInCU: 0x876F, offset: 0x876F, size: 0x8, addend: 0x0, symName: __ZNSt3__119__libcpp_deallocateB7v160006EPvmm, symObjAddr: 0x1BF4, symBinAddr: 0x100002F30, symSize: 0x30 }
  - { offsetInCU: 0x87B7, offset: 0x87B7, size: 0x8, addend: 0x0, symName: __ZNSt3__127__do_deallocate_handle_sizeB7v160006IJEEEvPvmDpT_, symObjAddr: 0x1C24, symBinAddr: 0x100002F60, symSize: 0x28 }
  - { offsetInCU: 0x87F5, offset: 0x87F5, size: 0x8, addend: 0x0, symName: __ZNSt3__124__libcpp_operator_deleteB7v160006IJPvEEEvDpT_, symObjAddr: 0x1C4C, symBinAddr: 0x100002F88, symSize: 0x24 }
  - { offsetInCU: 0x882A, offset: 0x882A, size: 0x8, addend: 0x0, symName: __ZNSt3__119__debug_db_insert_cB7v160006INS_12basic_stringIcNS_11char_traitsIcEENS_9allocatorIcEEEEEEvPT_, symObjAddr: 0x1D2C, symBinAddr: 0x100003068, symSize: 0x10 }
  - { offsetInCU: 0x8DF0, offset: 0x8DF0, size: 0x8, addend: 0x0, symName: __ZNSt3__19use_facetB7v160006INS_5ctypeIcEEEERKT_RKNS_6localeE, symObjAddr: 0x234C, symBinAddr: 0x100003688, symSize: 0x2C }
  - { offsetInCU: 0x91D0, offset: 0x91D0, size: 0x8, addend: 0x0, symName: __ZNSt3__125__debug_db_invalidate_allB7v160006INS_12basic_stringIcNS_11char_traitsIcEENS_9allocatorIcEEEEEEvPT_, symObjAddr: 0x2628, symBinAddr: 0x100003964, symSize: 0x10 }
  - { offsetInCU: 0x9469, offset: 0x9469, size: 0x8, addend: 0x0, symName: __ZNSt3__1ltB7v160006IcNS_11char_traitsIcEENS_9allocatorIcEEEEbRKNS_12basic_stringIT_T0_T1_EESB_, symObjAddr: 0x3124, symBinAddr: 0x100004460, symSize: 0x38 }
  - { offsetInCU: 0x94E5, offset: 0x94E5, size: 0x8, addend: 0x0, symName: __ZNSt3__118__constexpr_memcmpB7v160006IcEEiPKT_S3_m, symObjAddr: 0x3410, symBinAddr: 0x10000474C, symSize: 0x34 }
  - { offsetInCU: 0x9536, offset: 0x9536, size: 0x8, addend: 0x0, symName: __ZNSt3__112__to_addressB7v160006IKcEEPT_S3_, symObjAddr: 0x3444, symBinAddr: 0x100004780, symSize: 0x14 }
  - { offsetInCU: 0x95BC, offset: 0x95BC, size: 0x8, addend: 0x0, symName: __ZNSt3__127__tree_balance_after_insertB7v160006IPNS_16__tree_node_baseIPvEEEEvT_S5_, symObjAddr: 0x3A3C, symBinAddr: 0x100004D78, symSize: 0x340 }
  - { offsetInCU: 0x9630, offset: 0x9630, size: 0x8, addend: 0x0, symName: __ZNSt3__120__tree_is_left_childB7v160006IPNS_16__tree_node_baseIPvEEEEbT_, symObjAddr: 0x3DBC, symBinAddr: 0x1000050F8, symSize: 0x2C }
  - { offsetInCU: 0x9665, offset: 0x9665, size: 0x8, addend: 0x0, symName: __ZNSt3__118__tree_left_rotateB7v160006IPNS_16__tree_node_baseIPvEEEEvT_, symObjAddr: 0x3DE8, symBinAddr: 0x100005124, symSize: 0xEC }
  - { offsetInCU: 0x96A7, offset: 0x96A7, size: 0x8, addend: 0x0, symName: __ZNSt3__119__tree_right_rotateB7v160006IPNS_16__tree_node_baseIPvEEEEvT_, symObjAddr: 0x3ED4, symBinAddr: 0x100005210, symSize: 0xCC }
  - { offsetInCU: 0x96E9, offset: 0x96E9, size: 0x8, addend: 0x0, symName: __ZNSt3__1eqB7v160006ERKNS_21__tree_const_iteratorINS_12basic_stringIcNS_11char_traitsIcEENS_9allocatorIcEEEEPNS_11__tree_nodeIS6_PvEElEESD_, symObjAddr: 0x4CD4, symBinAddr: 0x100006010, symSize: 0x30 }
  - { offsetInCU: 0x9726, offset: 0x9726, size: 0x8, addend: 0x0, symName: __ZNSt3__14nextB7v160006INS_21__tree_const_iteratorINS_12basic_stringIcNS_11char_traitsIcEENS_9allocatorIcEEEEPNS_11__tree_nodeIS7_PvEElEEEENS_9enable_ifIXsr25__is_cpp17_input_iteratorIT_EE5valueESE_E4typeESE_NS_15iterator_traitsISE_E15difference_typeE, symObjAddr: 0x4DA4, symBinAddr: 0x1000060E0, symSize: 0x50 }
  - { offsetInCU: 0x9769, offset: 0x9769, size: 0x8, addend: 0x0, symName: __ZNSt3__116__tree_prev_iterB7v160006IPNS_16__tree_node_baseIPvEEPNS_15__tree_end_nodeIS4_EEEET_T0_, symObjAddr: 0x4E60, symBinAddr: 0x10000619C, symSize: 0x88 }
  - { offsetInCU: 0x97B5, offset: 0x97B5, size: 0x8, addend: 0x0, symName: __ZNSt3__110__tree_maxB7v160006IPNS_16__tree_node_baseIPvEEEET_S5_, symObjAddr: 0x4EE8, symBinAddr: 0x100006224, symSize: 0x40 }
  - { offsetInCU: 0x97EA, offset: 0x97EA, size: 0x8, addend: 0x0, symName: __ZNSt3__121__convert_to_integralB7v160006El, symObjAddr: 0x4F78, symBinAddr: 0x1000062B4, symSize: 0x14 }
  - { offsetInCU: 0x9816, offset: 0x9816, size: 0x8, addend: 0x0, symName: __ZNSt3__19__advanceB7v160006INS_21__tree_const_iteratorINS_12basic_stringIcNS_11char_traitsIcEENS_9allocatorIcEEEEPNS_11__tree_nodeIS7_PvEElEEEEvRT_NS_15iterator_traitsISD_E15difference_typeENS_26bidirectional_iterator_tagE, symObjAddr: 0x4F8C, symBinAddr: 0x1000062C8, symSize: 0xA4 }
  - { offsetInCU: 0x9918, offset: 0x9918, size: 0x8, addend: 0x0, symName: __ZNSt3__118__set_intersectionB7v160006INS_17_ClassicAlgPolicyENS_6__lessINS_12basic_stringIcNS_11char_traitsIcEENS_9allocatorIcEEEES8_EENS_21__tree_const_iteratorIS8_PNS_11__tree_nodeIS8_PvEElEESF_SF_SF_NS_15insert_iteratorINS_3setIS8_NS_4lessIS8_EENS6_IS8_EEEEEEEENS_25__set_intersection_resultIT1_T3_T5_EESO_T2_SP_T4_SQ_OT0_, symObjAddr: 0x5450, symBinAddr: 0x10000678C, symSize: 0x194 }
  - { offsetInCU: 0x9AA8, offset: 0x9AA8, size: 0x8, addend: 0x0, symName: __ZNSt3__14swapB7v160006IPNS_15__tree_end_nodeIPNS_16__tree_node_baseIPvEEEEEEvRT_S9_, symObjAddr: 0x58F8, symBinAddr: 0x100006C34, symSize: 0x3C }
  - { offsetInCU: 0x9AF9, offset: 0x9AF9, size: 0x8, addend: 0x0, symName: __ZNSt3__14swapB7v160006INS_15__tree_end_nodeIPNS_16__tree_node_baseIPvEEEEEEvRT_S8_, symObjAddr: 0x5934, symBinAddr: 0x100006C70, symSize: 0x3C }
  - { offsetInCU: 0x9B4A, offset: 0x9B4A, size: 0x8, addend: 0x0, symName: __ZNSt3__116__swap_allocatorB7v160006INS_9allocatorINS_11__tree_nodeINS_12basic_stringIcNS_11char_traitsIcEENS1_IcEEEEPvEEEEEEvRT_SC_, symObjAddr: 0x5970, symBinAddr: 0x100006CAC, symSize: 0x2C }
  - { offsetInCU: 0x9B89, offset: 0x9B89, size: 0x8, addend: 0x0, symName: __ZNSt3__116__swap_allocatorB7v160006INS_9allocatorINS_11__tree_nodeINS_12basic_stringIcNS_11char_traitsIcEENS1_IcEEEEPvEEEEEEvRT_SC_NS_17integral_constantIbLb0EEE, symObjAddr: 0x5A00, symBinAddr: 0x100006D3C, symSize: 0x14 }
  - { offsetInCU: 0x9BCA, offset: 0x9BCA, size: 0x8, addend: 0x0, symName: __ZNSt3__14swapB7v160006ImEEvRT_S2_, symObjAddr: 0x5A14, symBinAddr: 0x100006D50, symSize: 0x3C }
  - { offsetInCU: 0x9C1B, offset: 0x9C1B, size: 0x8, addend: 0x0, symName: __ZNSt3__14swapB7v160006INS_4lessINS_12basic_stringIcNS_11char_traitsIcEENS_9allocatorIcEEEEEEEEvRT_SA_, symObjAddr: 0x5A50, symBinAddr: 0x100006D8C, symSize: 0x14 }
  - { offsetInCU: 0x9C6C, offset: 0x9C6C, size: 0x8, addend: 0x0, symName: __ZNSt3__116__tree_next_iterB7v160006IPNS_15__tree_end_nodeIPNS_16__tree_node_baseIPvEEEES5_EET_T0_, symObjAddr: 0x5AC4, symBinAddr: 0x100006E00, symSize: 0x80 }
  - { offsetInCU: 0x9CAA, offset: 0x9CAA, size: 0x8, addend: 0x0, symName: __ZNSt3__110__tree_minB7v160006IPNS_16__tree_node_baseIPvEEEET_S5_, symObjAddr: 0x5B44, symBinAddr: 0x100006E80, symSize: 0x40 }
  - { offsetInCU: 0x9CDF, offset: 0x9CDF, size: 0x8, addend: 0x0, symName: __ZNSt3__116__pad_and_outputB7v160006IcNS_11char_traitsIcEEEENS_19ostreambuf_iteratorIT_T0_EES6_PKS4_S8_S8_RNS_8ios_baseES4_, symObjAddr: 0x5D94, symBinAddr: 0x1000070D0, symSize: 0x248 }
  - { offsetInCU: 0x9FBD, offset: 0x9FBD, size: 0x8, addend: 0x0, symName: __ZSt28__throw_bad_array_new_lengthB7v160006v, symObjAddr: 0x1520, symBinAddr: 0x10000285C, symSize: 0x34 }
  - { offsetInCU: 0xC980, offset: 0xC980, size: 0x8, addend: 0x0, symName: _main, symObjAddr: 0x0, symBinAddr: 0x10000133C, symSize: 0x3B8 }
  - { offsetInCU: 0xCA98, offset: 0xCA98, size: 0x8, addend: 0x0, symName: __ZNSt3__16vectorINS_3setINS_12basic_stringIcNS_11char_traitsIcEENS_9allocatorIcEEEENS_4lessIS7_EENS5_IS7_EEEENS5_ISB_EEEC1Em, symObjAddr: 0x3B8, symBinAddr: 0x1000016F4, symSize: 0x34 }
  - { offsetInCU: 0xCAD3, offset: 0xCAD3, size: 0x8, addend: 0x0, symName: __ZNSt3__112basic_stringIcNS_11char_traitsIcEENS_9allocatorIcEEEC1B7v160006Ev, symObjAddr: 0x3EC, symBinAddr: 0x100001728, symSize: 0x2C }
  - { offsetInCU: 0xCAFD, offset: 0xCAFD, size: 0x8, addend: 0x0, symName: __ZNKSt3__112basic_stringIcNS_11char_traitsIcEENS_9allocatorIcEEE5emptyB7v160006Ev, symObjAddr: 0x73C, symBinAddr: 0x100001A78, symSize: 0x30 }
  - { offsetInCU: 0xCB23, offset: 0xCB23, size: 0x8, addend: 0x0, symName: __ZNSt3__16vectorINS_3setINS_12basic_stringIcNS_11char_traitsIcEENS_9allocatorIcEEEENS_4lessIS7_EENS5_IS7_EEEENS5_ISB_EEEixB7v160006Em, symObjAddr: 0x76C, symBinAddr: 0x100001AA8, symSize: 0x2C }
  - { offsetInCU: 0xCB5A, offset: 0xCB5A, size: 0x8, addend: 0x0, symName: __ZNSt3__13setINS_12basic_stringIcNS_11char_traitsIcEENS_9allocatorIcEEEENS_4lessIS6_EENS4_IS6_EEE6insertB7v160006ERKS6_, symObjAddr: 0x798, symBinAddr: 0x100001AD4, symSize: 0x4C }
  - { offsetInCU: 0xCB8F, offset: 0xCB8F, size: 0x8, addend: 0x0, symName: __ZNSt3__13setINS_12basic_stringIcNS_11char_traitsIcEENS_9allocatorIcEEEENS_4lessIS6_EENS4_IS6_EEEC1B7v160006ERKSA_, symObjAddr: 0x7F0, symBinAddr: 0x100001B2C, symSize: 0x34 }
  - { offsetInCU: 0xCBC8, offset: 0xCBC8, size: 0x8, addend: 0x0, symName: __ZNSt3__13setINS_12basic_stringIcNS_11char_traitsIcEENS_9allocatorIcEEEENS_4lessIS6_EENS4_IS6_EEEC1B7v160006Ev, symObjAddr: 0x824, symBinAddr: 0x100001B60, symSize: 0x2C }
  - { offsetInCU: 0xCBF2, offset: 0xCBF2, size: 0x8, addend: 0x0, symName: __ZNSt3__13setINS_12basic_stringIcNS_11char_traitsIcEENS_9allocatorIcEEEENS_4lessIS6_EENS4_IS6_EEE5beginB7v160006Ev, symObjAddr: 0x8E8, symBinAddr: 0x100001C24, symSize: 0x38 }
  - { offsetInCU: 0xCC18, offset: 0xCC18, size: 0x8, addend: 0x0, symName: __ZNSt3__13setINS_12basic_stringIcNS_11char_traitsIcEENS_9allocatorIcEEEENS_4lessIS6_EENS4_IS6_EEE3endB7v160006Ev, symObjAddr: 0x920, symBinAddr: 0x100001C5C, symSize: 0x38 }
  - { offsetInCU: 0xCC3E, offset: 0xCC3E, size: 0x8, addend: 0x0, symName: __ZNSt3__13setINS_12basic_stringIcNS_11char_traitsIcEENS_9allocatorIcEEEENS_4lessIS6_EENS4_IS6_EEE4swapB7v160006ERSA_, symObjAddr: 0x998, symBinAddr: 0x100001CD4, symSize: 0x2C }
  - { offsetInCU: 0xCC73, offset: 0xCC73, size: 0x8, addend: 0x0, symName: __ZNSt3__13setINS_12basic_stringIcNS_11char_traitsIcEENS_9allocatorIcEEEENS_4lessIS6_EENS4_IS6_EEED1B7v160006Ev, symObjAddr: 0x9C4, symBinAddr: 0x100001D00, symSize: 0x2C }
  - { offsetInCU: 0xCC9D, offset: 0xCC9D, size: 0x8, addend: 0x0, symName: __ZNKSt3__13setINS_12basic_stringIcNS_11char_traitsIcEENS_9allocatorIcEEEENS_4lessIS6_EENS4_IS6_EEE4sizeB7v160006Ev, symObjAddr: 0x9F0, symBinAddr: 0x100001D2C, symSize: 0x28 }
  - { offsetInCU: 0xCCC3, offset: 0xCCC3, size: 0x8, addend: 0x0, symName: __ZNKSt3__121__tree_const_iteratorINS_12basic_stringIcNS_11char_traitsIcEENS_9allocatorIcEEEEPNS_11__tree_nodeIS6_PvEElEdeB7v160006Ev, symObjAddr: 0xA4C, symBinAddr: 0x100001D88, symSize: 0x28 }
  - { offsetInCU: 0xCCE9, offset: 0xCCE9, size: 0x8, addend: 0x0, symName: __ZNSt3__113basic_ostreamIcNS_11char_traitsIcEEElsB7v160006EPFRS3_S4_E, symObjAddr: 0xAC0, symBinAddr: 0x100001DFC, symSize: 0x2C }
  - { offsetInCU: 0xCD1D, offset: 0xCD1D, size: 0x8, addend: 0x0, symName: __ZNSt3__121__tree_const_iteratorINS_12basic_stringIcNS_11char_traitsIcEENS_9allocatorIcEEEEPNS_11__tree_nodeIS6_PvEElEppB7v160006Ev, symObjAddr: 0xB44, symBinAddr: 0x100001E80, symSize: 0x38 }
  - { offsetInCU: 0xCD43, offset: 0xCD43, size: 0x8, addend: 0x0, symName: __ZNSt3__16vectorINS_3setINS_12basic_stringIcNS_11char_traitsIcEENS_9allocatorIcEEEENS_4lessIS7_EENS5_IS7_EEEENS5_ISB_EEED1B7v160006Ev, symObjAddr: 0xB7C, symBinAddr: 0x100001EB8, symSize: 0x2C }
  - { offsetInCU: 0xCD6D, offset: 0xCD6D, size: 0x8, addend: 0x0, symName: __ZNSt3__16vectorINS_3setINS_12basic_stringIcNS_11char_traitsIcEENS_9allocatorIcEEEENS_4lessIS7_EENS5_IS7_EEEENS5_ISB_EEEC2Em, symObjAddr: 0xBA8, symBinAddr: 0x100001EE4, symSize: 0xE8 }
  - { offsetInCU: 0xCDC7, offset: 0xCDC7, size: 0x8, addend: 0x0, symName: __ZNSt3__117__compressed_pairIPNS_3setINS_12basic_stringIcNS_11char_traitsIcEENS_9allocatorIcEEEENS_4lessIS7_EENS5_IS7_EEEENS5_ISB_EEEC1B7v160006IDnNS_18__default_init_tagEEEOT_OT0_, symObjAddr: 0xC90, symBinAddr: 0x100001FCC, symSize: 0x3C }
  - { offsetInCU: 0xCE1F, offset: 0xCE1F, size: 0x8, addend: 0x0, symName: __ZNSt3__16vectorINS_3setINS_12basic_stringIcNS_11char_traitsIcEENS_9allocatorIcEEEENS_4lessIS7_EENS5_IS7_EEEENS5_ISB_EEE16__destroy_vectorC1ERSD_, symObjAddr: 0xD0C, symBinAddr: 0x100002048, symSize: 0x34 }
  - { offsetInCU: 0xCE58, offset: 0xCE58, size: 0x8, addend: 0x0, symName: __ZNSt3__16vectorINS_3setINS_12basic_stringIcNS_11char_traitsIcEENS_9allocatorIcEEEENS_4lessIS7_EENS5_IS7_EEEENS5_ISB_EEE11__vallocateB7v160006Em, symObjAddr: 0xD50, symBinAddr: 0x10000208C, symSize: 0xB4 }
  - { offsetInCU: 0xCE9C, offset: 0xCE9C, size: 0x8, addend: 0x0, symName: __ZNSt3__16vectorINS_3setINS_12basic_stringIcNS_11char_traitsIcEENS_9allocatorIcEEEENS_4lessIS7_EENS5_IS7_EEEENS5_ISB_EEE18__construct_at_endEm, symObjAddr: 0xE04, symBinAddr: 0x100002140, symSize: 0xD0 }
  - { offsetInCU: 0xCF0E, offset: 0xCF0E, size: 0x8, addend: 0x0, symName: __ZNSt3__128__exception_guard_exceptionsINS_6vectorINS_3setINS_12basic_stringIcNS_11char_traitsIcEENS_9allocatorIcEEEENS_4lessIS8_EENS6_IS8_EEEENS6_ISC_EEE16__destroy_vectorEE10__completeB7v160006Ev, symObjAddr: 0xED4, symBinAddr: 0x100002210, symSize: 0x1C }
  - { offsetInCU: 0xCF34, offset: 0xCF34, size: 0x8, addend: 0x0, symName: __ZNSt3__128__exception_guard_exceptionsINS_6vectorINS_3setINS_12basic_stringIcNS_11char_traitsIcEENS_9allocatorIcEEEENS_4lessIS8_EENS6_IS8_EEEENS6_ISC_EEE16__destroy_vectorEED1B7v160006Ev, symObjAddr: 0xEF0, symBinAddr: 0x10000222C, symSize: 0x2C }
  - { offsetInCU: 0xCF5E, offset: 0xCF5E, size: 0x8, addend: 0x0, symName: __ZNSt3__117__compressed_pairIPNS_3setINS_12basic_stringIcNS_11char_traitsIcEENS_9allocatorIcEEEENS_4lessIS7_EENS5_IS7_EEEENS5_ISB_EEEC2B7v160006IDnNS_18__default_init_tagEEEOT_OT0_, symObjAddr: 0xF1C, symBinAddr: 0x100002258, symSize: 0x40 }
  - { offsetInCU: 0xCFB6, offset: 0xCFB6, size: 0x8, addend: 0x0, symName: __ZNSt3__122__compressed_pair_elemIPNS_3setINS_12basic_stringIcNS_11char_traitsIcEENS_9allocatorIcEEEENS_4lessIS7_EENS5_IS7_EEEELi0ELb0EEC2B7v160006IDnvEEOT_, symObjAddr: 0xF5C, symBinAddr: 0x100002298, symSize: 0x1C }
  - { offsetInCU: 0xCFF8, offset: 0xCFF8, size: 0x8, addend: 0x0, symName: __ZNSt3__122__compressed_pair_elemINS_9allocatorINS_3setINS_12basic_stringIcNS_11char_traitsIcEENS1_IcEEEENS_4lessIS7_EENS1_IS7_EEEEEELi1ELb1EEC2B7v160006ENS_18__default_init_tagE, symObjAddr: 0xF78, symBinAddr: 0x1000022B4, symSize: 0x2C }
  - { offsetInCU: 0xD02C, offset: 0xD02C, size: 0x8, addend: 0x0, symName: __ZNSt3__19allocatorINS_3setINS_12basic_stringIcNS_11char_traitsIcEENS0_IcEEEENS_4lessIS6_EENS0_IS6_EEEEEC2B7v160006Ev, symObjAddr: 0xFA4, symBinAddr: 0x1000022E0, symSize: 0x2C }
  - { offsetInCU: 0xD056, offset: 0xD056, size: 0x8, addend: 0x0, symName: __ZNSt3__116__non_trivial_ifILb1ENS_9allocatorINS_3setINS_12basic_stringIcNS_11char_traitsIcEENS1_IcEEEENS_4lessIS7_EENS1_IS7_EEEEEEEC2B7v160006Ev, symObjAddr: 0xFD0, symBinAddr: 0x10000230C, symSize: 0x14 }
  - { offsetInCU: 0xD080, offset: 0xD080, size: 0x8, addend: 0x0, symName: __ZNSt3__128__exception_guard_exceptionsINS_6vectorINS_3setINS_12basic_stringIcNS_11char_traitsIcEENS_9allocatorIcEEEENS_4lessIS8_EENS6_IS8_EEEENS6_ISC_EEE16__destroy_vectorEEC1B7v160006ESF_, symObjAddr: 0xFE4, symBinAddr: 0x100002320, symSize: 0x34 }
  - { offsetInCU: 0xD0B8, offset: 0xD0B8, size: 0x8, addend: 0x0, symName: __ZNSt3__128__exception_guard_exceptionsINS_6vectorINS_3setINS_12basic_stringIcNS_11char_traitsIcEENS_9allocatorIcEEEENS_4lessIS8_EENS6_IS8_EEEENS6_ISC_EEE16__destroy_vectorEEC2B7v160006ESF_, symObjAddr: 0x1018, symBinAddr: 0x100002354, symSize: 0x24 }
  - { offsetInCU: 0xD0F0, offset: 0xD0F0, size: 0x8, addend: 0x0, symName: __ZNSt3__16vectorINS_3setINS_12basic_stringIcNS_11char_traitsIcEENS_9allocatorIcEEEENS_4lessIS7_EENS5_IS7_EEEENS5_ISB_EEE16__destroy_vectorC2ERSD_, symObjAddr: 0x103C, symBinAddr: 0x100002378, symSize: 0x20 }
  - { offsetInCU: 0xD129, offset: 0xD129, size: 0x8, addend: 0x0, symName: __ZNKSt3__16vectorINS_3setINS_12basic_stringIcNS_11char_traitsIcEENS_9allocatorIcEEEENS_4lessIS7_EENS5_IS7_EEEENS5_ISB_EEE8max_sizeEv, symObjAddr: 0x105C, symBinAddr: 0x100002398, symSize: 0x74 }
  - { offsetInCU: 0xD151, offset: 0xD151, size: 0x8, addend: 0x0, symName: __ZNKSt3__16vectorINS_3setINS_12basic_stringIcNS_11char_traitsIcEENS_9allocatorIcEEEENS_4lessIS7_EENS5_IS7_EEEENS5_ISB_EEE20__throw_length_errorB7v160006Ev, symObjAddr: 0x10D0, symBinAddr: 0x10000240C, symSize: 0x1C }
  - { offsetInCU: 0xD177, offset: 0xD177, size: 0x8, addend: 0x0, symName: __ZNSt3__16vectorINS_3setINS_12basic_stringIcNS_11char_traitsIcEENS_9allocatorIcEEEENS_4lessIS7_EENS5_IS7_EEEENS5_ISB_EEE7__allocB7v160006Ev, symObjAddr: 0x112C, symBinAddr: 0x100002468, symSize: 0x28 }
  - { offsetInCU: 0xD19D, offset: 0xD19D, size: 0x8, addend: 0x0, symName: __ZNSt3__16vectorINS_3setINS_12basic_stringIcNS_11char_traitsIcEENS_9allocatorIcEEEENS_4lessIS7_EENS5_IS7_EEEENS5_ISB_EEE9__end_capB7v160006Ev, symObjAddr: 0x1154, symBinAddr: 0x100002490, symSize: 0x28 }
  - { offsetInCU: 0xD1C3, offset: 0xD1C3, size: 0x8, addend: 0x0, symName: __ZNKSt3__16vectorINS_3setINS_12basic_stringIcNS_11char_traitsIcEENS_9allocatorIcEEEENS_4lessIS7_EENS5_IS7_EEEENS5_ISB_EEE14__annotate_newB7v160006Em, symObjAddr: 0x117C, symBinAddr: 0x1000024B8, symSize: 0xC8 }
  - { offsetInCU: 0xD202, offset: 0xD202, size: 0x8, addend: 0x0, symName: __ZNSt3__116allocator_traitsINS_9allocatorINS_3setINS_12basic_stringIcNS_11char_traitsIcEENS1_IcEEEENS_4lessIS7_EENS1_IS7_EEEEEEE8max_sizeB7v160006ISC_vEEmRKSC_, symObjAddr: 0x1270, symBinAddr: 0x1000025AC, symSize: 0x24 }
  - { offsetInCU: 0xD230, offset: 0xD230, size: 0x8, addend: 0x0, symName: __ZNKSt3__16vectorINS_3setINS_12basic_stringIcNS_11char_traitsIcEENS_9allocatorIcEEEENS_4lessIS7_EENS5_IS7_EEEENS5_ISB_EEE7__allocB7v160006Ev, symObjAddr: 0x1294, symBinAddr: 0x1000025D0, symSize: 0x28 }
  - { offsetInCU: 0xD256, offset: 0xD256, size: 0x8, addend: 0x0, symName: __ZNSt3__114numeric_limitsIlE3maxB7v160006Ev, symObjAddr: 0x12BC, symBinAddr: 0x1000025F8, symSize: 0x14 }
  - { offsetInCU: 0xD274, offset: 0xD274, size: 0x8, addend: 0x0, symName: __ZNKSt3__16__lessImmEclB7v160006ERKmS3_, symObjAddr: 0x1324, symBinAddr: 0x100002660, symSize: 0x34 }
  - { offsetInCU: 0xD2B6, offset: 0xD2B6, size: 0x8, addend: 0x0, symName: __ZNKSt3__19allocatorINS_3setINS_12basic_stringIcNS_11char_traitsIcEENS0_IcEEEENS_4lessIS6_EENS0_IS6_EEEEE8max_sizeB7v160006Ev, symObjAddr: 0x1358, symBinAddr: 0x100002694, symSize: 0x18 }
  - { offsetInCU: 0xD2DC, offset: 0xD2DC, size: 0x8, addend: 0x0, symName: __ZNKSt3__117__compressed_pairIPNS_3setINS_12basic_stringIcNS_11char_traitsIcEENS_9allocatorIcEEEENS_4lessIS7_EENS5_IS7_EEEENS5_ISB_EEE6secondB7v160006Ev, symObjAddr: 0x1370, symBinAddr: 0x1000026AC, symSize: 0x24 }
  - { offsetInCU: 0xD302, offset: 0xD302, size: 0x8, addend: 0x0, symName: __ZNKSt3__122__compressed_pair_elemINS_9allocatorINS_3setINS_12basic_stringIcNS_11char_traitsIcEENS1_IcEEEENS_4lessIS7_EENS1_IS7_EEEEEELi1ELb1EE5__getB7v160006Ev, symObjAddr: 0x1394, symBinAddr: 0x1000026D0, symSize: 0x14 }
  - { offsetInCU: 0xD328, offset: 0xD328, size: 0x8, addend: 0x0, symName: __ZNSt3__123__libcpp_numeric_limitsIlLb1EE3maxB7v160006Ev, symObjAddr: 0x13A8, symBinAddr: 0x1000026E4, symSize: 0x8 }
  - { offsetInCU: 0xD33C, offset: 0xD33C, size: 0x8, addend: 0x0, symName: __ZNSt12length_errorC1B7v160006EPKc, symObjAddr: 0x1414, symBinAddr: 0x100002750, symSize: 0x34 }
  - { offsetInCU: 0xD374, offset: 0xD374, size: 0x8, addend: 0x0, symName: __ZNSt12length_errorC2B7v160006EPKc, symObjAddr: 0x1448, symBinAddr: 0x100002784, symSize: 0x4C }
  - { offsetInCU: 0xD3AC, offset: 0xD3AC, size: 0x8, addend: 0x0, symName: __ZNSt3__19allocatorINS_3setINS_12basic_stringIcNS_11char_traitsIcEENS0_IcEEEENS_4lessIS6_EENS0_IS6_EEEEE8allocateB7v160006Em, symObjAddr: 0x1494, symBinAddr: 0x1000027D0, symSize: 0x8C }
  - { offsetInCU: 0xD3E0, offset: 0xD3E0, size: 0x8, addend: 0x0, symName: __ZNSt3__117__compressed_pairIPNS_3setINS_12basic_stringIcNS_11char_traitsIcEENS_9allocatorIcEEEENS_4lessIS7_EENS5_IS7_EEEENS5_ISB_EEE6secondB7v160006Ev, symObjAddr: 0x15AC, symBinAddr: 0x1000028E8, symSize: 0x24 }
  - { offsetInCU: 0xD406, offset: 0xD406, size: 0x8, addend: 0x0, symName: __ZNSt3__122__compressed_pair_elemINS_9allocatorINS_3setINS_12basic_stringIcNS_11char_traitsIcEENS1_IcEEEENS_4lessIS7_EENS1_IS7_EEEEEELi1ELb1EE5__getB7v160006Ev, symObjAddr: 0x15D0, symBinAddr: 0x10000290C, symSize: 0x14 }
  - { offsetInCU: 0xD42C, offset: 0xD42C, size: 0x8, addend: 0x0, symName: __ZNSt3__117__compressed_pairIPNS_3setINS_12basic_stringIcNS_11char_traitsIcEENS_9allocatorIcEEEENS_4lessIS7_EENS5_IS7_EEEENS5_ISB_EEE5firstB7v160006Ev, symObjAddr: 0x15E4, symBinAddr: 0x100002920, symSize: 0x24 }
  - { offsetInCU: 0xD452, offset: 0xD452, size: 0x8, addend: 0x0, symName: __ZNSt3__122__compressed_pair_elemIPNS_3setINS_12basic_stringIcNS_11char_traitsIcEENS_9allocatorIcEEEENS_4lessIS7_EENS5_IS7_EEEELi0ELb0EE5__getB7v160006Ev, symObjAddr: 0x1608, symBinAddr: 0x100002944, symSize: 0x14 }
  - { offsetInCU: 0xD478, offset: 0xD478, size: 0x8, addend: 0x0, symName: __ZNKSt3__16vectorINS_3setINS_12basic_stringIcNS_11char_traitsIcEENS_9allocatorIcEEEENS_4lessIS7_EENS5_IS7_EEEENS5_ISB_EEE31__annotate_contiguous_containerB7v160006EPKvSF_SF_SF_, symObjAddr: 0x161C, symBinAddr: 0x100002958, symSize: 0x20 }
  - { offsetInCU: 0xD4CE, offset: 0xD4CE, size: 0x8, addend: 0x0, symName: __ZNKSt3__16vectorINS_3setINS_12basic_stringIcNS_11char_traitsIcEENS_9allocatorIcEEEENS_4lessIS7_EENS5_IS7_EEEENS5_ISB_EEE4dataB7v160006Ev, symObjAddr: 0x163C, symBinAddr: 0x100002978, symSize: 0x28 }
  - { offsetInCU: 0xD4F4, offset: 0xD4F4, size: 0x8, addend: 0x0, symName: __ZNKSt3__16vectorINS_3setINS_12basic_stringIcNS_11char_traitsIcEENS_9allocatorIcEEEENS_4lessIS7_EENS5_IS7_EEEENS5_ISB_EEE8capacityB7v160006Ev, symObjAddr: 0x1664, symBinAddr: 0x1000029A0, symSize: 0x40 }
  - { offsetInCU: 0xD51A, offset: 0xD51A, size: 0x8, addend: 0x0, symName: __ZNKSt3__16vectorINS_3setINS_12basic_stringIcNS_11char_traitsIcEENS_9allocatorIcEEEENS_4lessIS7_EENS5_IS7_EEEENS5_ISB_EEE9__end_capB7v160006Ev, symObjAddr: 0x16B8, symBinAddr: 0x1000029F4, symSize: 0x28 }
  - { offsetInCU: 0xD540, offset: 0xD540, size: 0x8, addend: 0x0, symName: __ZNKSt3__117__compressed_pairIPNS_3setINS_12basic_stringIcNS_11char_traitsIcEENS_9allocatorIcEEEENS_4lessIS7_EENS5_IS7_EEEENS5_ISB_EEE5firstB7v160006Ev, symObjAddr: 0x16E0, symBinAddr: 0x100002A1C, symSize: 0x24 }
  - { offsetInCU: 0xD566, offset: 0xD566, size: 0x8, addend: 0x0, symName: __ZNKSt3__122__compressed_pair_elemIPNS_3setINS_12basic_stringIcNS_11char_traitsIcEENS_9allocatorIcEEEENS_4lessIS7_EENS5_IS7_EEEELi0ELb0EE5__getB7v160006Ev, symObjAddr: 0x1704, symBinAddr: 0x100002A40, symSize: 0x14 }
  - { offsetInCU: 0xD5A5, offset: 0xD5A5, size: 0x8, addend: 0x0, symName: __ZNSt3__16vectorINS_3setINS_12basic_stringIcNS_11char_traitsIcEENS_9allocatorIcEEEENS_4lessIS7_EENS5_IS7_EEEENS5_ISB_EEE21_ConstructTransactionC1B7v160006ERSD_m, symObjAddr: 0x1718, symBinAddr: 0x100002A54, symSize: 0x3C }
  - { offsetInCU: 0xD5ED, offset: 0xD5ED, size: 0x8, addend: 0x0, symName: __ZNSt3__116allocator_traitsINS_9allocatorINS_3setINS_12basic_stringIcNS_11char_traitsIcEENS1_IcEEEENS_4lessIS7_EENS1_IS7_EEEEEEE9constructB7v160006ISB_JEvEEvRSC_PT_DpOT0_, symObjAddr: 0x1754, symBinAddr: 0x100002A90, symSize: 0x2C }
  - { offsetInCU: 0xD62F, offset: 0xD62F, size: 0x8, addend: 0x0, symName: __ZNSt3__16vectorINS_3setINS_12basic_stringIcNS_11char_traitsIcEENS_9allocatorIcEEEENS_4lessIS7_EENS5_IS7_EEEENS5_ISB_EEE21_ConstructTransactionD1B7v160006Ev, symObjAddr: 0x1780, symBinAddr: 0x100002ABC, symSize: 0x2C }
  - { offsetInCU: 0xD659, offset: 0xD659, size: 0x8, addend: 0x0, symName: __ZNSt3__16vectorINS_3setINS_12basic_stringIcNS_11char_traitsIcEENS_9allocatorIcEEEENS_4lessIS7_EENS5_IS7_EEEENS5_ISB_EEE21_ConstructTransactionC2B7v160006ERSD_m, symObjAddr: 0x17AC, symBinAddr: 0x100002AE8, symSize: 0x4C }
  - { offsetInCU: 0xD6A1, offset: 0xD6A1, size: 0x8, addend: 0x0, symName: __ZNSt3__19allocatorINS_3setINS_12basic_stringIcNS_11char_traitsIcEENS0_IcEEEENS_4lessIS6_EENS0_IS6_EEEEE9constructB7v160006ISA_JEEEvPT_DpOT0_, symObjAddr: 0x17F8, symBinAddr: 0x100002B34, symSize: 0x28 }
  - { offsetInCU: 0xD6E3, offset: 0xD6E3, size: 0x8, addend: 0x0, symName: __ZNSt3__16vectorINS_3setINS_12basic_stringIcNS_11char_traitsIcEENS_9allocatorIcEEEENS_4lessIS7_EENS5_IS7_EEEENS5_ISB_EEE21_ConstructTransactionD2B7v160006Ev, symObjAddr: 0x1820, symBinAddr: 0x100002B5C, symSize: 0x20 }
  - { offsetInCU: 0xD70D, offset: 0xD70D, size: 0x8, addend: 0x0, symName: __ZNSt3__128__exception_guard_exceptionsINS_6vectorINS_3setINS_12basic_stringIcNS_11char_traitsIcEENS_9allocatorIcEEEENS_4lessIS8_EENS6_IS8_EEEENS6_ISC_EEE16__destroy_vectorEED2B7v160006Ev, symObjAddr: 0x1840, symBinAddr: 0x100002B7C, symSize: 0x48 }
  - { offsetInCU: 0xD737, offset: 0xD737, size: 0x8, addend: 0x0, symName: __ZNSt3__16vectorINS_3setINS_12basic_stringIcNS_11char_traitsIcEENS_9allocatorIcEEEENS_4lessIS7_EENS5_IS7_EEEENS5_ISB_EEE16__destroy_vectorclB7v160006Ev, symObjAddr: 0x1888, symBinAddr: 0x100002BC4, symSize: 0x9C }
  - { offsetInCU: 0xD75D, offset: 0xD75D, size: 0x8, addend: 0x0, symName: __ZNKSt3__16vectorINS_3setINS_12basic_stringIcNS_11char_traitsIcEENS_9allocatorIcEEEENS_4lessIS7_EENS5_IS7_EEEENS5_ISB_EEE17__annotate_deleteB7v160006Ev, symObjAddr: 0x1924, symBinAddr: 0x100002C60, symSize: 0xD4 }
  - { offsetInCU: 0xD783, offset: 0xD783, size: 0x8, addend: 0x0, symName: __ZNSt3__16vectorINS_3setINS_12basic_stringIcNS_11char_traitsIcEENS_9allocatorIcEEEENS_4lessIS7_EENS5_IS7_EEEENS5_ISB_EEE7__clearB7v160006Ev, symObjAddr: 0x1A08, symBinAddr: 0x100002D44, symSize: 0x28 }
  - { offsetInCU: 0xD7A9, offset: 0xD7A9, size: 0x8, addend: 0x0, symName: __ZNSt3__116allocator_traitsINS_9allocatorINS_3setINS_12basic_stringIcNS_11char_traitsIcEENS1_IcEEEENS_4lessIS7_EENS1_IS7_EEEEEEE10deallocateB7v160006ERSC_PSB_m, symObjAddr: 0x1A30, symBinAddr: 0x100002D6C, symSize: 0x34 }
  - { offsetInCU: 0xD7EB, offset: 0xD7EB, size: 0x8, addend: 0x0, symName: __ZNKSt3__16vectorINS_3setINS_12basic_stringIcNS_11char_traitsIcEENS_9allocatorIcEEEENS_4lessIS7_EENS5_IS7_EEEENS5_ISB_EEE4sizeB7v160006Ev, symObjAddr: 0x1A64, symBinAddr: 0x100002DA0, symSize: 0x28 }
  - { offsetInCU: 0xD811, offset: 0xD811, size: 0x8, addend: 0x0, symName: __ZNSt3__16vectorINS_3setINS_12basic_stringIcNS_11char_traitsIcEENS_9allocatorIcEEEENS_4lessIS7_EENS5_IS7_EEEENS5_ISB_EEE22__base_destruct_at_endB7v160006EPSB_, symObjAddr: 0x1A8C, symBinAddr: 0x100002DC8, symSize: 0xA0 }
  - { offsetInCU: 0xD855, offset: 0xD855, size: 0x8, addend: 0x0, symName: __ZNSt3__116allocator_traitsINS_9allocatorINS_3setINS_12basic_stringIcNS_11char_traitsIcEENS1_IcEEEENS_4lessIS7_EENS1_IS7_EEEEEEE7destroyB7v160006ISB_vEEvRSC_PT_, symObjAddr: 0x1B2C, symBinAddr: 0x100002E68, symSize: 0x2C }
  - { offsetInCU: 0xD892, offset: 0xD892, size: 0x8, addend: 0x0, symName: __ZNSt3__19allocatorINS_3setINS_12basic_stringIcNS_11char_traitsIcEENS0_IcEEEENS_4lessIS6_EENS0_IS6_EEEEE7destroyB7v160006EPSA_, symObjAddr: 0x1B58, symBinAddr: 0x100002E94, symSize: 0x28 }
  - { offsetInCU: 0xD8C6, offset: 0xD8C6, size: 0x8, addend: 0x0, symName: __ZNSt3__19allocatorINS_3setINS_12basic_stringIcNS_11char_traitsIcEENS0_IcEEEENS_4lessIS6_EENS0_IS6_EEEEE10deallocateB7v160006EPSA_m, symObjAddr: 0x1B80, symBinAddr: 0x100002EBC, symSize: 0x74 }
  - { offsetInCU: 0xD908, offset: 0xD908, size: 0x8, addend: 0x0, symName: __ZNSt3__16vectorINS_3setINS_12basic_stringIcNS_11char_traitsIcEENS_9allocatorIcEEEENS_4lessIS7_EENS5_IS7_EEEENS5_ISB_EEED2B7v160006Ev, symObjAddr: 0x1C70, symBinAddr: 0x100002FAC, symSize: 0x3C }
  - { offsetInCU: 0xD932, offset: 0xD932, size: 0x8, addend: 0x0, symName: __ZNSt3__112basic_stringIcNS_11char_traitsIcEENS_9allocatorIcEEEC2B7v160006Ev, symObjAddr: 0x1CAC, symBinAddr: 0x100002FE8, symSize: 0x44 }
  - { offsetInCU: 0xD95C, offset: 0xD95C, size: 0x8, addend: 0x0, symName: __ZNSt3__117__compressed_pairINS_12basic_stringIcNS_11char_traitsIcEENS_9allocatorIcEEE5__repES5_EC1B7v160006INS_18__default_init_tagESA_EEOT_OT0_, symObjAddr: 0x1CF0, symBinAddr: 0x10000302C, symSize: 0x3C }
  - { offsetInCU: 0xD9B4, offset: 0xD9B4, size: 0x8, addend: 0x0, symName: __ZNSt3__112basic_stringIcNS_11char_traitsIcEENS_9allocatorIcEEE14__default_initB7v160006Ev, symObjAddr: 0x1D3C, symBinAddr: 0x100003078, symSize: 0xB0 }
  - { offsetInCU: 0xDA06, offset: 0xDA06, size: 0x8, addend: 0x0, symName: __ZNSt3__117__compressed_pairINS_12basic_stringIcNS_11char_traitsIcEENS_9allocatorIcEEE5__repES5_EC2B7v160006INS_18__default_init_tagESA_EEOT_OT0_, symObjAddr: 0x1DEC, symBinAddr: 0x100003128, symSize: 0x3C }
  - { offsetInCU: 0xDA5E, offset: 0xDA5E, size: 0x8, addend: 0x0, symName: __ZNSt3__122__compressed_pair_elemINS_12basic_stringIcNS_11char_traitsIcEENS_9allocatorIcEEE5__repELi0ELb0EEC2B7v160006ENS_18__default_init_tagE, symObjAddr: 0x1E28, symBinAddr: 0x100003164, symSize: 0x14 }
  - { offsetInCU: 0xDA92, offset: 0xDA92, size: 0x8, addend: 0x0, symName: __ZNSt3__122__compressed_pair_elemINS_9allocatorIcEELi1ELb1EEC2B7v160006ENS_18__default_init_tagE, symObjAddr: 0x1E3C, symBinAddr: 0x100003178, symSize: 0x2C }
  - { offsetInCU: 0xDAC6, offset: 0xDAC6, size: 0x8, addend: 0x0, symName: __ZNSt3__19allocatorIcEC2B7v160006Ev, symObjAddr: 0x1E68, symBinAddr: 0x1000031A4, symSize: 0x2C }
  - { offsetInCU: 0xDAF0, offset: 0xDAF0, size: 0x8, addend: 0x0, symName: __ZNSt3__116__non_trivial_ifILb1ENS_9allocatorIcEEEC2B7v160006Ev, symObjAddr: 0x1E94, symBinAddr: 0x1000031D0, symSize: 0x14 }
  - { offsetInCU: 0xDB1A, offset: 0xDB1A, size: 0x8, addend: 0x0, symName: __ZNSt3__117__compressed_pairINS_12basic_stringIcNS_11char_traitsIcEENS_9allocatorIcEEE5__repES5_E5firstB7v160006Ev, symObjAddr: 0x1EA8, symBinAddr: 0x1000031E4, symSize: 0x24 }
  - { offsetInCU: 0xDB40, offset: 0xDB40, size: 0x8, addend: 0x0, symName: __ZNSt3__112basic_stringIcNS_11char_traitsIcEENS_9allocatorIcEEE11__recommendB7v160006Em, symObjAddr: 0x1ECC, symBinAddr: 0x100003208, symSize: 0x9C }
  - { offsetInCU: 0xDB73, offset: 0xDB73, size: 0x8, addend: 0x0, symName: __ZNSt3__116allocator_traitsINS_9allocatorIcEEE8allocateB7v160006ERS2_m, symObjAddr: 0x1F68, symBinAddr: 0x1000032A4, symSize: 0x2C }
  - { offsetInCU: 0xDBA6, offset: 0xDBA6, size: 0x8, addend: 0x0, symName: __ZNSt3__112basic_stringIcNS_11char_traitsIcEENS_9allocatorIcEEE7__allocB7v160006Ev, symObjAddr: 0x1F94, symBinAddr: 0x1000032D0, symSize: 0x24 }
  - { offsetInCU: 0xDBCC, offset: 0xDBCC, size: 0x8, addend: 0x0, symName: __ZNSt3__112basic_stringIcNS_11char_traitsIcEENS_9allocatorIcEEE16__begin_lifetimeB7v160006EPcm, symObjAddr: 0x1FB8, symBinAddr: 0x1000032F4, symSize: 0x14 }
  - { offsetInCU: 0xDBFF, offset: 0xDBFF, size: 0x8, addend: 0x0, symName: __ZNSt3__112basic_stringIcNS_11char_traitsIcEENS_9allocatorIcEEE18__set_long_pointerB7v160006EPc, symObjAddr: 0x1FCC, symBinAddr: 0x100003308, symSize: 0x38 }
  - { offsetInCU: 0xDC34, offset: 0xDC34, size: 0x8, addend: 0x0, symName: __ZNSt3__112basic_stringIcNS_11char_traitsIcEENS_9allocatorIcEEE14__set_long_capB7v160006Em, symObjAddr: 0x2004, symBinAddr: 0x100003340, symSize: 0x70 }
  - { offsetInCU: 0xDC69, offset: 0xDC69, size: 0x8, addend: 0x0, symName: __ZNSt3__112basic_stringIcNS_11char_traitsIcEENS_9allocatorIcEEE15__set_long_sizeB7v160006Em, symObjAddr: 0x2074, symBinAddr: 0x1000033B0, symSize: 0x38 }
  - { offsetInCU: 0xDC9E, offset: 0xDC9E, size: 0x8, addend: 0x0, symName: __ZNSt3__122__compressed_pair_elemINS_12basic_stringIcNS_11char_traitsIcEENS_9allocatorIcEEE5__repELi0ELb0EE5__getB7v160006Ev, symObjAddr: 0x20AC, symBinAddr: 0x1000033E8, symSize: 0x14 }
  - { offsetInCU: 0xDCC4, offset: 0xDCC4, size: 0x8, addend: 0x0, symName: __ZNSt3__112basic_stringIcNS_11char_traitsIcEENS_9allocatorIcEEE10__align_itB7v160006ILm16EEEmm, symObjAddr: 0x20C0, symBinAddr: 0x1000033FC, symSize: 0x1C }
  - { offsetInCU: 0xDCF2, offset: 0xDCF2, size: 0x8, addend: 0x0, symName: __ZNSt3__19allocatorIcE8allocateB7v160006Em, symObjAddr: 0x20DC, symBinAddr: 0x100003418, symSize: 0x84 }
  - { offsetInCU: 0xDD30, offset: 0xDD30, size: 0x8, addend: 0x0, symName: __ZNSt3__116allocator_traitsINS_9allocatorIcEEE8max_sizeB7v160006IS2_vEEmRKS2_, symObjAddr: 0x2160, symBinAddr: 0x10000349C, symSize: 0x24 }
  - { offsetInCU: 0xDD5E, offset: 0xDD5E, size: 0x8, addend: 0x0, symName: __ZNKSt3__19allocatorIcE8max_sizeB7v160006Ev, symObjAddr: 0x2184, symBinAddr: 0x1000034C0, symSize: 0x14 }
  - { offsetInCU: 0xDD84, offset: 0xDD84, size: 0x8, addend: 0x0, symName: __ZNSt3__117__compressed_pairINS_12basic_stringIcNS_11char_traitsIcEENS_9allocatorIcEEE5__repES5_E6secondB7v160006Ev, symObjAddr: 0x2198, symBinAddr: 0x1000034D4, symSize: 0x24 }
  - { offsetInCU: 0xDDAA, offset: 0xDDAA, size: 0x8, addend: 0x0, symName: __ZNSt3__122__compressed_pair_elemINS_9allocatorIcEELi1ELb1EE5__getB7v160006Ev, symObjAddr: 0x21BC, symBinAddr: 0x1000034F8, symSize: 0x14 }
  - { offsetInCU: 0xDE72, offset: 0xDE72, size: 0x8, addend: 0x0, symName: __ZNKSt3__113basic_istreamIcNS_11char_traitsIcEEE6sentrycvbB7v160006Ev, symObjAddr: 0x21D0, symBinAddr: 0x10000350C, symSize: 0x1C }
  - { offsetInCU: 0xDE98, offset: 0xDE98, size: 0x8, addend: 0x0, symName: __ZNSt3__112basic_stringIcNS_11char_traitsIcEENS_9allocatorIcEEE5clearB7v160006Ev, symObjAddr: 0x21EC, symBinAddr: 0x100003528, symSize: 0x9C }
  - { offsetInCU: 0xDEC0, offset: 0xDEC0, size: 0x8, addend: 0x0, symName: __ZNKSt3__18ios_base5widthB7v160006Ev, symObjAddr: 0x2288, symBinAddr: 0x1000035C4, symSize: 0x18 }
  - { offsetInCU: 0xDEE8, offset: 0xDEE8, size: 0x8, addend: 0x0, symName: __ZNKSt3__112basic_stringIcNS_11char_traitsIcEENS_9allocatorIcEEE8max_sizeB7v160006Ev, symObjAddr: 0x22A0, symBinAddr: 0x1000035DC, symSize: 0xAC }
  - { offsetInCU: 0xDF3A, offset: 0xDF3A, size: 0x8, addend: 0x0, symName: __ZNKSt3__19basic_iosIcNS_11char_traitsIcEEE5rdbufB7v160006Ev, symObjAddr: 0x2378, symBinAddr: 0x1000036B4, symSize: 0x24 }
  - { offsetInCU: 0xDF62, offset: 0xDF62, size: 0x8, addend: 0x0, symName: __ZNSt3__115basic_streambufIcNS_11char_traitsIcEEE5sgetcB7v160006Ev, symObjAddr: 0x239C, symBinAddr: 0x1000036D8, symSize: 0x70 }
  - { offsetInCU: 0xDF88, offset: 0xDF88, size: 0x8, addend: 0x0, symName: __ZNSt3__111char_traitsIcE11eq_int_typeEii, symObjAddr: 0x240C, symBinAddr: 0x100003748, symSize: 0x28 }
  - { offsetInCU: 0xDFB9, offset: 0xDFB9, size: 0x8, addend: 0x0, symName: __ZNSt3__111char_traitsIcE3eofEv, symObjAddr: 0x2434, symBinAddr: 0x100003770, symSize: 0x8 }
  - { offsetInCU: 0xDFCD, offset: 0xDFCD, size: 0x8, addend: 0x0, symName: __ZNSt3__111char_traitsIcE12to_char_typeEi, symObjAddr: 0x243C, symBinAddr: 0x100003778, symSize: 0x18 }
  - { offsetInCU: 0xE01D, offset: 0xE01D, size: 0x8, addend: 0x0, symName: __ZNKSt3__15ctypeIcE2isB7v160006Ejc, symObjAddr: 0x2454, symBinAddr: 0x100003790, symSize: 0x7C }
  - { offsetInCU: 0xE061, offset: 0xE061, size: 0x8, addend: 0x0, symName: __ZNSt3__115basic_streambufIcNS_11char_traitsIcEEE6sbumpcB7v160006Ev, symObjAddr: 0x24D0, symBinAddr: 0x10000380C, symSize: 0x78 }
  - { offsetInCU: 0xE087, offset: 0xE087, size: 0x8, addend: 0x0, symName: __ZNSt3__18ios_base5widthB7v160006El, symObjAddr: 0x2548, symBinAddr: 0x100003884, symSize: 0x2C }
  - { offsetInCU: 0xE0CD, offset: 0xE0CD, size: 0x8, addend: 0x0, symName: __ZNSt3__18ios_base18__setstate_nothrowB7v160006Ej, symObjAddr: 0x2574, symBinAddr: 0x1000038B0, symSize: 0x64 }
  - { offsetInCU: 0xE102, offset: 0xE102, size: 0x8, addend: 0x0, symName: __ZNKSt3__19basic_iosIcNS_11char_traitsIcEEE10exceptionsB7v160006Ev, symObjAddr: 0x25D8, symBinAddr: 0x100003914, symSize: 0x24 }
  - { offsetInCU: 0xE128, offset: 0xE128, size: 0x8, addend: 0x0, symName: __ZNSt3__19basic_iosIcNS_11char_traitsIcEEE8setstateB7v160006Ej, symObjAddr: 0x25FC, symBinAddr: 0x100003938, symSize: 0x2C }
  - { offsetInCU: 0xE15D, offset: 0xE15D, size: 0x8, addend: 0x0, symName: __ZNKSt3__112basic_stringIcNS_11char_traitsIcEENS_9allocatorIcEEE9__is_longB7v160006Ev, symObjAddr: 0x2638, symBinAddr: 0x100003974, symSize: 0x74 }
  - { offsetInCU: 0xE183, offset: 0xE183, size: 0x8, addend: 0x0, symName: __ZNSt3__111char_traitsIcE6assignERcRKc, symObjAddr: 0x26AC, symBinAddr: 0x1000039E8, symSize: 0x24 }
  - { offsetInCU: 0xE1B4, offset: 0xE1B4, size: 0x8, addend: 0x0, symName: __ZNSt3__112basic_stringIcNS_11char_traitsIcEENS_9allocatorIcEEE18__get_long_pointerB7v160006Ev, symObjAddr: 0x26D0, symBinAddr: 0x100003A0C, symSize: 0x28 }
  - { offsetInCU: 0xE1DA, offset: 0xE1DA, size: 0x8, addend: 0x0, symName: __ZNSt3__112basic_stringIcNS_11char_traitsIcEENS_9allocatorIcEEE19__get_short_pointerB7v160006Ev, symObjAddr: 0x26F8, symBinAddr: 0x100003A34, symSize: 0x28 }
  - { offsetInCU: 0xE200, offset: 0xE200, size: 0x8, addend: 0x0, symName: __ZNSt3__112basic_stringIcNS_11char_traitsIcEENS_9allocatorIcEEE16__set_short_sizeB7v160006Em, symObjAddr: 0x2720, symBinAddr: 0x100003A5C, symSize: 0x78 }
  - { offsetInCU: 0xE235, offset: 0xE235, size: 0x8, addend: 0x0, symName: __ZNKSt3__117__compressed_pairINS_12basic_stringIcNS_11char_traitsIcEENS_9allocatorIcEEE5__repES5_E5firstB7v160006Ev, symObjAddr: 0x2798, symBinAddr: 0x100003AD4, symSize: 0x24 }
  - { offsetInCU: 0xE25B, offset: 0xE25B, size: 0x8, addend: 0x0, symName: __ZNKSt3__122__compressed_pair_elemINS_12basic_stringIcNS_11char_traitsIcEENS_9allocatorIcEEE5__repELi0ELb0EE5__getB7v160006Ev, symObjAddr: 0x27BC, symBinAddr: 0x100003AF8, symSize: 0x14 }
  - { offsetInCU: 0xE281, offset: 0xE281, size: 0x8, addend: 0x0, symName: __ZNSt3__114pointer_traitsIPcE10pointer_toB7v160006ERc, symObjAddr: 0x27D0, symBinAddr: 0x100003B0C, symSize: 0x14 }
  - { offsetInCU: 0xE2A4, offset: 0xE2A4, size: 0x8, addend: 0x0, symName: __ZNKSt3__112basic_stringIcNS_11char_traitsIcEENS_9allocatorIcEEE7__allocB7v160006Ev, symObjAddr: 0x27E4, symBinAddr: 0x100003B20, symSize: 0x24 }
  - { offsetInCU: 0xE2CA, offset: 0xE2CA, size: 0x8, addend: 0x0, symName: __ZNSt3__114numeric_limitsImE3maxB7v160006Ev, symObjAddr: 0x2808, symBinAddr: 0x100003B44, symSize: 0x14 }
  - { offsetInCU: 0xE2DE, offset: 0xE2DE, size: 0x8, addend: 0x0, symName: __ZNKSt3__117__compressed_pairINS_12basic_stringIcNS_11char_traitsIcEENS_9allocatorIcEEE5__repES5_E6secondB7v160006Ev, symObjAddr: 0x281C, symBinAddr: 0x100003B58, symSize: 0x24 }
  - { offsetInCU: 0xE304, offset: 0xE304, size: 0x8, addend: 0x0, symName: __ZNKSt3__122__compressed_pair_elemINS_9allocatorIcEELi1ELb1EE5__getB7v160006Ev, symObjAddr: 0x2840, symBinAddr: 0x100003B7C, symSize: 0x14 }
  - { offsetInCU: 0xE32A, offset: 0xE32A, size: 0x8, addend: 0x0, symName: __ZNSt3__123__libcpp_numeric_limitsImLb1EE3maxB7v160006Ev, symObjAddr: 0x2854, symBinAddr: 0x100003B90, symSize: 0x8 }
  - { offsetInCU: 0xE33E, offset: 0xE33E, size: 0x8, addend: 0x0, symName: __ZNKSt3__18ios_base5rdbufB7v160006Ev, symObjAddr: 0x285C, symBinAddr: 0x100003B98, symSize: 0x18 }
  - { offsetInCU: 0xE364, offset: 0xE364, size: 0x8, addend: 0x0, symName: __ZNSt3__111char_traitsIcE11to_int_typeEc, symObjAddr: 0x2874, symBinAddr: 0x100003BB0, symSize: 0x14 }
  - { offsetInCU: 0xE386, offset: 0xE386, size: 0x8, addend: 0x0, symName: __Z7isasciii, symObjAddr: 0x2888, symBinAddr: 0x100003BC4, symSize: 0x24 }
  - { offsetInCU: 0xE3B3, offset: 0xE3B3, size: 0x8, addend: 0x0, symName: __ZNKSt3__18ios_base10exceptionsB7v160006Ev, symObjAddr: 0x28AC, symBinAddr: 0x100003BE8, symSize: 0x18 }
  - { offsetInCU: 0xE3DB, offset: 0xE3DB, size: 0x8, addend: 0x0, symName: __ZNSt3__18ios_base8setstateB7v160006Ej, symObjAddr: 0x28C4, symBinAddr: 0x100003C00, symSize: 0x34 }
  - { offsetInCU: 0xE412, offset: 0xE412, size: 0x8, addend: 0x0, symName: __ZNKSt3__112basic_stringIcNS_11char_traitsIcEENS_9allocatorIcEEE4sizeB7v160006Ev, symObjAddr: 0x28F8, symBinAddr: 0x100003C34, symSize: 0x54 }
  - { offsetInCU: 0xE438, offset: 0xE438, size: 0x8, addend: 0x0, symName: __ZNKSt3__112basic_stringIcNS_11char_traitsIcEENS_9allocatorIcEEE15__get_long_sizeB7v160006Ev, symObjAddr: 0x294C, symBinAddr: 0x100003C88, symSize: 0x28 }
  - { offsetInCU: 0xE45E, offset: 0xE45E, size: 0x8, addend: 0x0, symName: __ZNKSt3__112basic_stringIcNS_11char_traitsIcEENS_9allocatorIcEEE16__get_short_sizeB7v160006Ev, symObjAddr: 0x2974, symBinAddr: 0x100003CB0, symSize: 0x34 }
  - { offsetInCU: 0xE484, offset: 0xE484, size: 0x8, addend: 0x0, symName: __ZNSt3__16__treeINS_12basic_stringIcNS_11char_traitsIcEENS_9allocatorIcEEEENS_4lessIS6_EENS4_IS6_EEE15__insert_uniqueB7v160006ERKS6_, symObjAddr: 0x29A8, symBinAddr: 0x100003CE4, symSize: 0x50 }
  - { offsetInCU: 0xE4B9, offset: 0xE4B9, size: 0x8, addend: 0x0, symName: __ZNSt3__14pairINS_21__tree_const_iteratorINS_12basic_stringIcNS_11char_traitsIcEENS_9allocatorIcEEEEPNS_11__tree_nodeIS7_PvEElEEbEC1B7v160006INS_15__tree_iteratorIS7_SB_lEEbEERKNS0_IT_T0_EE, symObjAddr: 0x29F8, symBinAddr: 0x100003D34, symSize: 0x34 }
  - { offsetInCU: 0xE503, offset: 0xE503, size: 0x8, addend: 0x0, symName: __ZNSt3__16__treeINS_12basic_stringIcNS_11char_traitsIcEENS_9allocatorIcEEEENS_4lessIS6_EENS4_IS6_EEE25__emplace_unique_key_argsIS6_JRKS6_EEENS_4pairINS_15__tree_iteratorIS6_PNS_11__tree_nodeIS6_PvEElEEbEERKT_DpOT0_, symObjAddr: 0x2A2C, symBinAddr: 0x100003D68, symSize: 0xF0 }
  - { offsetInCU: 0xE5AF, offset: 0xE5AF, size: 0x8, addend: 0x0, symName: __ZNSt3__122__tree_key_value_typesINS_12basic_stringIcNS_11char_traitsIcEENS_9allocatorIcEEEEE9__get_keyB7v160006ERKS6_, symObjAddr: 0x2B1C, symBinAddr: 0x100003E58, symSize: 0x14 }
  - { offsetInCU: 0xE5D3, offset: 0xE5D3, size: 0x8, addend: 0x0, symName: __ZNSt3__16__treeINS_12basic_stringIcNS_11char_traitsIcEENS_9allocatorIcEEEENS_4lessIS6_EENS4_IS6_EEE12__find_equalIS6_EERPNS_16__tree_node_baseIPvEERPNS_15__tree_end_nodeISF_EERKT_, symObjAddr: 0x2B30, symBinAddr: 0x100003E6C, symSize: 0x184 }
  - { offsetInCU: 0xE640, offset: 0xE640, size: 0x8, addend: 0x0, symName: __ZNSt3__16__treeINS_12basic_stringIcNS_11char_traitsIcEENS_9allocatorIcEEEENS_4lessIS6_EENS4_IS6_EEE16__construct_nodeIJRKS6_EEENS_10unique_ptrINS_11__tree_nodeIS6_PvEENS_22__tree_node_destructorINS4_ISH_EEEEEEDpOT_, symObjAddr: 0x2CB4, symBinAddr: 0x100003FF0, symSize: 0x118 }
  - { offsetInCU: 0xE6A1, offset: 0xE6A1, size: 0x8, addend: 0x0, symName: __ZNSt3__16__treeINS_12basic_stringIcNS_11char_traitsIcEENS_9allocatorIcEEEENS_4lessIS6_EENS4_IS6_EEE16__insert_node_atEPNS_15__tree_end_nodeIPNS_16__tree_node_baseIPvEEEERSF_SF_, symObjAddr: 0x2DCC, symBinAddr: 0x100004108, symSize: 0xCC }
  - { offsetInCU: 0xE6F6, offset: 0xE6F6, size: 0x8, addend: 0x0, symName: __ZNKSt3__110unique_ptrINS_11__tree_nodeINS_12basic_stringIcNS_11char_traitsIcEENS_9allocatorIcEEEEPvEENS_22__tree_node_destructorINS5_IS9_EEEEE3getB7v160006Ev, symObjAddr: 0x2E98, symBinAddr: 0x1000041D4, symSize: 0x28 }
  - { offsetInCU: 0xE71C, offset: 0xE71C, size: 0x8, addend: 0x0, symName: __ZNSt3__110unique_ptrINS_11__tree_nodeINS_12basic_stringIcNS_11char_traitsIcEENS_9allocatorIcEEEEPvEENS_22__tree_node_destructorINS5_IS9_EEEEE7releaseB7v160006Ev, symObjAddr: 0x2EC0, symBinAddr: 0x1000041FC, symSize: 0x44 }
  - { offsetInCU: 0xE751, offset: 0xE751, size: 0x8, addend: 0x0, symName: __ZNSt3__110unique_ptrINS_11__tree_nodeINS_12basic_stringIcNS_11char_traitsIcEENS_9allocatorIcEEEEPvEENS_22__tree_node_destructorINS5_IS9_EEEEED1B7v160006Ev, symObjAddr: 0x2F04, symBinAddr: 0x100004240, symSize: 0x2C }
  - { offsetInCU: 0xE77B, offset: 0xE77B, size: 0x8, addend: 0x0, symName: __ZNSt3__115__tree_iteratorINS_12basic_stringIcNS_11char_traitsIcEENS_9allocatorIcEEEEPNS_11__tree_nodeIS6_PvEElEC1B7v160006ESA_, symObjAddr: 0x2F30, symBinAddr: 0x10000426C, symSize: 0x34 }
  - { offsetInCU: 0xE7B4, offset: 0xE7B4, size: 0x8, addend: 0x0, symName: __ZNSt3__14pairINS_15__tree_iteratorINS_12basic_stringIcNS_11char_traitsIcEENS_9allocatorIcEEEEPNS_11__tree_nodeIS7_PvEElEEbEC1B7v160006ERKSC_RKb, symObjAddr: 0x2F64, symBinAddr: 0x1000042A0, symSize: 0x3C }
  - { offsetInCU: 0xE7FA, offset: 0xE7FA, size: 0x8, addend: 0x0, symName: __ZNKSt3__16__treeINS_12basic_stringIcNS_11char_traitsIcEENS_9allocatorIcEEEENS_4lessIS6_EENS4_IS6_EEE6__rootB7v160006Ev, symObjAddr: 0x2FA0, symBinAddr: 0x1000042DC, symSize: 0x28 }
  - { offsetInCU: 0xE820, offset: 0xE820, size: 0x8, addend: 0x0, symName: __ZNKSt3__16__treeINS_12basic_stringIcNS_11char_traitsIcEENS_9allocatorIcEEEENS_4lessIS6_EENS4_IS6_EEE10__root_ptrEv, symObjAddr: 0x2FC8, symBinAddr: 0x100004304, symSize: 0x24 }
  - { offsetInCU: 0xE846, offset: 0xE846, size: 0x8, addend: 0x0, symName: __ZNSt3__16__treeINS_12basic_stringIcNS_11char_traitsIcEENS_9allocatorIcEEEENS_4lessIS6_EENS4_IS6_EEE10value_compB7v160006Ev, symObjAddr: 0x2FEC, symBinAddr: 0x100004328, symSize: 0x28 }
  - { offsetInCU: 0xE86C, offset: 0xE86C, size: 0x8, addend: 0x0, symName: __ZNKSt3__14lessINS_12basic_stringIcNS_11char_traitsIcEENS_9allocatorIcEEEEEclB7v160006ERKS6_S9_, symObjAddr: 0x3014, symBinAddr: 0x100004350, symSize: 0x34 }
  - { offsetInCU: 0xE8B0, offset: 0xE8B0, size: 0x8, addend: 0x0, symName: __ZNSt3__16__treeINS_12basic_stringIcNS_11char_traitsIcEENS_9allocatorIcEEEENS_4lessIS6_EENS4_IS6_EEE10__end_nodeB7v160006Ev, symObjAddr: 0x3048, symBinAddr: 0x100004384, symSize: 0x2C }
  - { offsetInCU: 0xE8D6, offset: 0xE8D6, size: 0x8, addend: 0x0, symName: __ZNKSt3__16__treeINS_12basic_stringIcNS_11char_traitsIcEENS_9allocatorIcEEEENS_4lessIS6_EENS4_IS6_EEE10__end_nodeB7v160006Ev, symObjAddr: 0x3074, symBinAddr: 0x1000043B0, symSize: 0x2C }
  - { offsetInCU: 0xE8FC, offset: 0xE8FC, size: 0x8, addend: 0x0, symName: __ZNSt3__114pointer_traitsIPNS_15__tree_end_nodeIPNS_16__tree_node_baseIPvEEEEE10pointer_toB7v160006ERS6_, symObjAddr: 0x30A0, symBinAddr: 0x1000043DC, symSize: 0x14 }
  - { offsetInCU: 0xE91F, offset: 0xE91F, size: 0x8, addend: 0x0, symName: __ZNKSt3__117__compressed_pairINS_15__tree_end_nodeIPNS_16__tree_node_baseIPvEEEENS_9allocatorINS_11__tree_nodeINS_12basic_stringIcNS_11char_traitsIcEENS7_IcEEEES3_EEEEE5firstB7v160006Ev, symObjAddr: 0x30B4, symBinAddr: 0x1000043F0, symSize: 0x24 }
  - { offsetInCU: 0xE945, offset: 0xE945, size: 0x8, addend: 0x0, symName: __ZNKSt3__122__compressed_pair_elemINS_15__tree_end_nodeIPNS_16__tree_node_baseIPvEEEELi0ELb0EE5__getB7v160006Ev, symObjAddr: 0x30D8, symBinAddr: 0x100004414, symSize: 0x14 }
  - { offsetInCU: 0xE96B, offset: 0xE96B, size: 0x8, addend: 0x0, symName: __ZNSt3__117__compressed_pairImNS_4lessINS_12basic_stringIcNS_11char_traitsIcEENS_9allocatorIcEEEEEEE6secondB7v160006Ev, symObjAddr: 0x30EC, symBinAddr: 0x100004428, symSize: 0x24 }
  - { offsetInCU: 0xE991, offset: 0xE991, size: 0x8, addend: 0x0, symName: __ZNSt3__122__compressed_pair_elemINS_4lessINS_12basic_stringIcNS_11char_traitsIcEENS_9allocatorIcEEEEEELi1ELb1EE5__getB7v160006Ev, symObjAddr: 0x3110, symBinAddr: 0x10000444C, symSize: 0x14 }
  - { offsetInCU: 0xE9B7, offset: 0xE9B7, size: 0x8, addend: 0x0, symName: __ZNKSt3__112basic_stringIcNS_11char_traitsIcEENS_9allocatorIcEEE7compareB7v160006ERKS5_, symObjAddr: 0x315C, symBinAddr: 0x100004498, symSize: 0x4C }
  - { offsetInCU: 0xE9EE, offset: 0xE9EE, size: 0x8, addend: 0x0, symName: __ZNKSt3__112basic_stringIcNS_11char_traitsIcEENS_9allocatorIcEEE7compareINS_17basic_string_viewIcS2_EEEENS_9enable_ifIXsr33__can_be_converted_to_string_viewIcS2_T_EE5valueEiE4typeERKSA_, symObjAddr: 0x31A8, symBinAddr: 0x1000044E4, symSize: 0x140 }
  - { offsetInCU: 0xEA6B, offset: 0xEA6B, size: 0x8, addend: 0x0, symName: __ZNKSt3__112basic_stringIcNS_11char_traitsIcEENS_9allocatorIcEEEcvNS_17basic_string_viewIcS2_EEB7v160006Ev, symObjAddr: 0x32E8, symBinAddr: 0x100004624, symSize: 0x50 }
  - { offsetInCU: 0xEA91, offset: 0xEA91, size: 0x8, addend: 0x0, symName: __ZNKSt3__117basic_string_viewIcNS_11char_traitsIcEEE4sizeB7v160006Ev, symObjAddr: 0x3338, symBinAddr: 0x100004674, symSize: 0x18 }
  - { offsetInCU: 0xEAB7, offset: 0xEAB7, size: 0x8, addend: 0x0, symName: __ZNSt3__111char_traitsIcE7compareEPKcS3_m, symObjAddr: 0x3350, symBinAddr: 0x10000468C, symSize: 0x80 }
  - { offsetInCU: 0xEAF6, offset: 0xEAF6, size: 0x8, addend: 0x0, symName: __ZNKSt3__112basic_stringIcNS_11char_traitsIcEENS_9allocatorIcEEE4dataB7v160006Ev, symObjAddr: 0x33D0, symBinAddr: 0x10000470C, symSize: 0x28 }
  - { offsetInCU: 0xEB1C, offset: 0xEB1C, size: 0x8, addend: 0x0, symName: __ZNKSt3__117basic_string_viewIcNS_11char_traitsIcEEE4dataB7v160006Ev, symObjAddr: 0x33F8, symBinAddr: 0x100004734, symSize: 0x18 }
  - { offsetInCU: 0xEB42, offset: 0xEB42, size: 0x8, addend: 0x0, symName: __ZNKSt3__112basic_stringIcNS_11char_traitsIcEENS_9allocatorIcEEE13__get_pointerB7v160006Ev, symObjAddr: 0x3458, symBinAddr: 0x100004794, symSize: 0x54 }
  - { offsetInCU: 0xEB68, offset: 0xEB68, size: 0x8, addend: 0x0, symName: __ZNKSt3__112basic_stringIcNS_11char_traitsIcEENS_9allocatorIcEEE18__get_long_pointerB7v160006Ev, symObjAddr: 0x34AC, symBinAddr: 0x1000047E8, symSize: 0x28 }
  - { offsetInCU: 0xEB8E, offset: 0xEB8E, size: 0x8, addend: 0x0, symName: __ZNKSt3__112basic_stringIcNS_11char_traitsIcEENS_9allocatorIcEEE19__get_short_pointerB7v160006Ev, symObjAddr: 0x34D4, symBinAddr: 0x100004810, symSize: 0x28 }
  - { offsetInCU: 0xEBB4, offset: 0xEBB4, size: 0x8, addend: 0x0, symName: __ZNSt3__114pointer_traitsIPKcE10pointer_toB7v160006ERS1_, symObjAddr: 0x34FC, symBinAddr: 0x100004838, symSize: 0x14 }
  - { offsetInCU: 0xEBD7, offset: 0xEBD7, size: 0x8, addend: 0x0, symName: __ZNSt3__117basic_string_viewIcNS_11char_traitsIcEEEC1B7v160006EPKcm, symObjAddr: 0x3510, symBinAddr: 0x10000484C, symSize: 0x3C }
  - { offsetInCU: 0xEC1F, offset: 0xEC1F, size: 0x8, addend: 0x0, symName: __ZNSt3__117basic_string_viewIcNS_11char_traitsIcEEEC2B7v160006EPKcm, symObjAddr: 0x354C, symBinAddr: 0x100004888, symSize: 0x2C }
  - { offsetInCU: 0xEC67, offset: 0xEC67, size: 0x8, addend: 0x0, symName: __ZNSt3__117__compressed_pairINS_15__tree_end_nodeIPNS_16__tree_node_baseIPvEEEENS_9allocatorINS_11__tree_nodeINS_12basic_stringIcNS_11char_traitsIcEENS7_IcEEEES3_EEEEE5firstB7v160006Ev, symObjAddr: 0x3578, symBinAddr: 0x1000048B4, symSize: 0x24 }
  - { offsetInCU: 0xEC8D, offset: 0xEC8D, size: 0x8, addend: 0x0, symName: __ZNSt3__122__compressed_pair_elemINS_15__tree_end_nodeIPNS_16__tree_node_baseIPvEEEELi0ELb0EE5__getB7v160006Ev, symObjAddr: 0x359C, symBinAddr: 0x1000048D8, symSize: 0x14 }
  - { offsetInCU: 0xECB3, offset: 0xECB3, size: 0x8, addend: 0x0, symName: __ZNSt3__16__treeINS_12basic_stringIcNS_11char_traitsIcEENS_9allocatorIcEEEENS_4lessIS6_EENS4_IS6_EEE12__node_allocB7v160006Ev, symObjAddr: 0x35B0, symBinAddr: 0x1000048EC, symSize: 0x28 }
  - { offsetInCU: 0xECD9, offset: 0xECD9, size: 0x8, addend: 0x0, symName: __ZNSt3__116allocator_traitsINS_9allocatorINS_11__tree_nodeINS_12basic_stringIcNS_11char_traitsIcEENS1_IcEEEEPvEEEEE8allocateB7v160006ERSA_m, symObjAddr: 0x35D8, symBinAddr: 0x100004914, symSize: 0x2C }
  - { offsetInCU: 0xED0C, offset: 0xED0C, size: 0x8, addend: 0x0, symName: __ZNSt3__122__tree_node_destructorINS_9allocatorINS_11__tree_nodeINS_12basic_stringIcNS_11char_traitsIcEENS1_IcEEEEPvEEEEEC1B7v160006ERSA_b, symObjAddr: 0x3604, symBinAddr: 0x100004940, symSize: 0x48 }
  - { offsetInCU: 0xED59, offset: 0xED59, size: 0x8, addend: 0x0, symName: __ZNSt3__110unique_ptrINS_11__tree_nodeINS_12basic_stringIcNS_11char_traitsIcEENS_9allocatorIcEEEEPvEENS_22__tree_node_destructorINS5_IS9_EEEEEC1B7v160006ILb1EvEEPS9_NS_16__dependent_typeINS_27__unique_ptr_deleter_sfinaeISC_EEXT_EE20__good_rval_ref_typeE, symObjAddr: 0x364C, symBinAddr: 0x100004988, symSize: 0x3C }
  - { offsetInCU: 0xEDAA, offset: 0xEDAA, size: 0x8, addend: 0x0, symName: __ZNSt3__116allocator_traitsINS_9allocatorINS_11__tree_nodeINS_12basic_stringIcNS_11char_traitsIcEENS1_IcEEEEPvEEEEE9constructB7v160006IS7_JRKS7_EvEEvRSA_PT_DpOT0_, symObjAddr: 0x3688, symBinAddr: 0x1000049C4, symSize: 0x34 }
  - { offsetInCU: 0xEE01, offset: 0xEE01, size: 0x8, addend: 0x0, symName: __ZNSt3__122__tree_key_value_typesINS_12basic_stringIcNS_11char_traitsIcEENS_9allocatorIcEEEEE9__get_ptrB7v160006ERS6_, symObjAddr: 0x36BC, symBinAddr: 0x1000049F8, symSize: 0x14 }
  - { offsetInCU: 0xEE25, offset: 0xEE25, size: 0x8, addend: 0x0, symName: __ZNKSt3__110unique_ptrINS_11__tree_nodeINS_12basic_stringIcNS_11char_traitsIcEENS_9allocatorIcEEEEPvEENS_22__tree_node_destructorINS5_IS9_EEEEEptB7v160006Ev, symObjAddr: 0x36D0, symBinAddr: 0x100004A0C, symSize: 0x28 }
  - { offsetInCU: 0xEE4B, offset: 0xEE4B, size: 0x8, addend: 0x0, symName: __ZNSt3__110unique_ptrINS_11__tree_nodeINS_12basic_stringIcNS_11char_traitsIcEENS_9allocatorIcEEEEPvEENS_22__tree_node_destructorINS5_IS9_EEEEE11get_deleterB7v160006Ev, symObjAddr: 0x36F8, symBinAddr: 0x100004A34, symSize: 0x24 }
  - { offsetInCU: 0xEE71, offset: 0xEE71, size: 0x8, addend: 0x0, symName: __ZNSt3__117__compressed_pairINS_15__tree_end_nodeIPNS_16__tree_node_baseIPvEEEENS_9allocatorINS_11__tree_nodeINS_12basic_stringIcNS_11char_traitsIcEENS7_IcEEEES3_EEEEE6secondB7v160006Ev, symObjAddr: 0x371C, symBinAddr: 0x100004A58, symSize: 0x24 }
  - { offsetInCU: 0xEE97, offset: 0xEE97, size: 0x8, addend: 0x0, symName: __ZNSt3__122__compressed_pair_elemINS_9allocatorINS_11__tree_nodeINS_12basic_stringIcNS_11char_traitsIcEENS1_IcEEEEPvEEEELi1ELb1EE5__getB7v160006Ev, symObjAddr: 0x3740, symBinAddr: 0x100004A7C, symSize: 0x14 }
  - { offsetInCU: 0xEEBD, offset: 0xEEBD, size: 0x8, addend: 0x0, symName: __ZNSt3__19allocatorINS_11__tree_nodeINS_12basic_stringIcNS_11char_traitsIcEENS0_IcEEEEPvEEE8allocateB7v160006Em, symObjAddr: 0x3754, symBinAddr: 0x100004A90, symSize: 0x8C }
  - { offsetInCU: 0xEEFB, offset: 0xEEFB, size: 0x8, addend: 0x0, symName: __ZNSt3__116allocator_traitsINS_9allocatorINS_11__tree_nodeINS_12basic_stringIcNS_11char_traitsIcEENS1_IcEEEEPvEEEEE8max_sizeB7v160006ISA_vEEmRKSA_, symObjAddr: 0x37E0, symBinAddr: 0x100004B1C, symSize: 0x24 }
  - { offsetInCU: 0xEF29, offset: 0xEF29, size: 0x8, addend: 0x0, symName: __ZNKSt3__19allocatorINS_11__tree_nodeINS_12basic_stringIcNS_11char_traitsIcEENS0_IcEEEEPvEEE8max_sizeB7v160006Ev, symObjAddr: 0x3804, symBinAddr: 0x100004B40, symSize: 0x20 }
  - { offsetInCU: 0xEF4F, offset: 0xEF4F, size: 0x8, addend: 0x0, symName: __ZNSt3__122__tree_node_destructorINS_9allocatorINS_11__tree_nodeINS_12basic_stringIcNS_11char_traitsIcEENS1_IcEEEEPvEEEEEC2B7v160006ERSA_b, symObjAddr: 0x3824, symBinAddr: 0x100004B60, symSize: 0x38 }
  - { offsetInCU: 0xEF97, offset: 0xEF97, size: 0x8, addend: 0x0, symName: __ZNSt3__110unique_ptrINS_11__tree_nodeINS_12basic_stringIcNS_11char_traitsIcEENS_9allocatorIcEEEEPvEENS_22__tree_node_destructorINS5_IS9_EEEEEC2B7v160006ILb1EvEEPS9_NS_16__dependent_typeINS_27__unique_ptr_deleter_sfinaeISC_EEXT_EE20__good_rval_ref_typeE, symObjAddr: 0x385C, symBinAddr: 0x100004B98, symSize: 0x5C }
  - { offsetInCU: 0xEFE8, offset: 0xEFE8, size: 0x8, addend: 0x0, symName: __ZNSt3__117__compressed_pairIPNS_11__tree_nodeINS_12basic_stringIcNS_11char_traitsIcEENS_9allocatorIcEEEEPvEENS_22__tree_node_destructorINS5_IS9_EEEEEC1B7v160006IRSA_SD_EEOT_OT0_, symObjAddr: 0x38B8, symBinAddr: 0x100004BF4, symSize: 0x3C }
  - { offsetInCU: 0xF040, offset: 0xF040, size: 0x8, addend: 0x0, symName: __ZNSt3__117__compressed_pairIPNS_11__tree_nodeINS_12basic_stringIcNS_11char_traitsIcEENS_9allocatorIcEEEEPvEENS_22__tree_node_destructorINS5_IS9_EEEEEC2B7v160006IRSA_SD_EEOT_OT0_, symObjAddr: 0x38F4, symBinAddr: 0x100004C30, symSize: 0x48 }
  - { offsetInCU: 0xF098, offset: 0xF098, size: 0x8, addend: 0x0, symName: __ZNSt3__122__compressed_pair_elemIPNS_11__tree_nodeINS_12basic_stringIcNS_11char_traitsIcEENS_9allocatorIcEEEEPvEELi0ELb0EEC2B7v160006IRSA_vEEOT_, symObjAddr: 0x393C, symBinAddr: 0x100004C78, symSize: 0x24 }
  - { offsetInCU: 0xF0DA, offset: 0xF0DA, size: 0x8, addend: 0x0, symName: __ZNSt3__122__compressed_pair_elemINS_22__tree_node_destructorINS_9allocatorINS_11__tree_nodeINS_12basic_stringIcNS_11char_traitsIcEENS2_IcEEEEPvEEEEEELi1ELb0EEC2B7v160006ISC_vEEOT_, symObjAddr: 0x3960, symBinAddr: 0x100004C9C, symSize: 0x24 }
  - { offsetInCU: 0xF11C, offset: 0xF11C, size: 0x8, addend: 0x0, symName: __ZNSt3__19allocatorINS_11__tree_nodeINS_12basic_stringIcNS_11char_traitsIcEENS0_IcEEEEPvEEE9constructB7v160006IS6_JRKS6_EEEvPT_DpOT0_, symObjAddr: 0x3984, symBinAddr: 0x100004CC0, symSize: 0x30 }
  - { offsetInCU: 0xF172, offset: 0xF172, size: 0x8, addend: 0x0, symName: __ZNKSt3__117__compressed_pairIPNS_11__tree_nodeINS_12basic_stringIcNS_11char_traitsIcEENS_9allocatorIcEEEEPvEENS_22__tree_node_destructorINS5_IS9_EEEEE5firstB7v160006Ev, symObjAddr: 0x39B4, symBinAddr: 0x100004CF0, symSize: 0x24 }
  - { offsetInCU: 0xF198, offset: 0xF198, size: 0x8, addend: 0x0, symName: __ZNKSt3__122__compressed_pair_elemIPNS_11__tree_nodeINS_12basic_stringIcNS_11char_traitsIcEENS_9allocatorIcEEEEPvEELi0ELb0EE5__getB7v160006Ev, symObjAddr: 0x39D8, symBinAddr: 0x100004D14, symSize: 0x14 }
  - { offsetInCU: 0xF1BE, offset: 0xF1BE, size: 0x8, addend: 0x0, symName: __ZNSt3__117__compressed_pairIPNS_11__tree_nodeINS_12basic_stringIcNS_11char_traitsIcEENS_9allocatorIcEEEEPvEENS_22__tree_node_destructorINS5_IS9_EEEEE6secondB7v160006Ev, symObjAddr: 0x39EC, symBinAddr: 0x100004D28, symSize: 0x28 }
  - { offsetInCU: 0xF1E4, offset: 0xF1E4, size: 0x8, addend: 0x0, symName: __ZNSt3__122__compressed_pair_elemINS_22__tree_node_destructorINS_9allocatorINS_11__tree_nodeINS_12basic_stringIcNS_11char_traitsIcEENS2_IcEEEEPvEEEEEELi1ELb0EE5__getB7v160006Ev, symObjAddr: 0x3A14, symBinAddr: 0x100004D50, symSize: 0x14 }
  - { offsetInCU: 0xF20A, offset: 0xF20A, size: 0x8, addend: 0x0, symName: __ZNSt3__16__treeINS_12basic_stringIcNS_11char_traitsIcEENS_9allocatorIcEEEENS_4lessIS6_EENS4_IS6_EEE12__begin_nodeB7v160006Ev, symObjAddr: 0x3A28, symBinAddr: 0x100004D64, symSize: 0x14 }
  - { offsetInCU: 0xF230, offset: 0xF230, size: 0x8, addend: 0x0, symName: __ZNSt3__16__treeINS_12basic_stringIcNS_11char_traitsIcEENS_9allocatorIcEEEENS_4lessIS6_EENS4_IS6_EEE4sizeB7v160006Ev, symObjAddr: 0x3D7C, symBinAddr: 0x1000050B8, symSize: 0x28 }
  - { offsetInCU: 0xF256, offset: 0xF256, size: 0x8, addend: 0x0, symName: __ZNKSt3__116__tree_node_baseIPvE15__parent_unsafeB7v160006Ev, symObjAddr: 0x3DA4, symBinAddr: 0x1000050E0, symSize: 0x18 }
  - { offsetInCU: 0xF27C, offset: 0xF27C, size: 0x8, addend: 0x0, symName: __ZNSt3__116__tree_node_baseIPvE12__set_parentB7v160006EPS2_, symObjAddr: 0x3FA0, symBinAddr: 0x1000052DC, symSize: 0x20 }
  - { offsetInCU: 0xF2B1, offset: 0xF2B1, size: 0x8, addend: 0x0, symName: __ZNSt3__117__compressed_pairImNS_4lessINS_12basic_stringIcNS_11char_traitsIcEENS_9allocatorIcEEEEEEE5firstB7v160006Ev, symObjAddr: 0x3FC0, symBinAddr: 0x1000052FC, symSize: 0x24 }
  - { offsetInCU: 0xF2D7, offset: 0xF2D7, size: 0x8, addend: 0x0, symName: __ZNSt3__122__compressed_pair_elemImLi0ELb0EE5__getB7v160006Ev, symObjAddr: 0x3FE4, symBinAddr: 0x100005320, symSize: 0x14 }
  - { offsetInCU: 0xF2FD, offset: 0xF2FD, size: 0x8, addend: 0x0, symName: __ZNSt3__117__compressed_pairIPNS_11__tree_nodeINS_12basic_stringIcNS_11char_traitsIcEENS_9allocatorIcEEEEPvEENS_22__tree_node_destructorINS5_IS9_EEEEE5firstB7v160006Ev, symObjAddr: 0x3FF8, symBinAddr: 0x100005334, symSize: 0x24 }
  - { offsetInCU: 0xF323, offset: 0xF323, size: 0x8, addend: 0x0, symName: __ZNSt3__122__compressed_pair_elemIPNS_11__tree_nodeINS_12basic_stringIcNS_11char_traitsIcEENS_9allocatorIcEEEEPvEELi0ELb0EE5__getB7v160006Ev, symObjAddr: 0x401C, symBinAddr: 0x100005358, symSize: 0x14 }
  - { offsetInCU: 0xF349, offset: 0xF349, size: 0x8, addend: 0x0, symName: __ZNSt3__110unique_ptrINS_11__tree_nodeINS_12basic_stringIcNS_11char_traitsIcEENS_9allocatorIcEEEEPvEENS_22__tree_node_destructorINS5_IS9_EEEEED2B7v160006Ev, symObjAddr: 0x4030, symBinAddr: 0x10000536C, symSize: 0x30 }
  - { offsetInCU: 0xF373, offset: 0xF373, size: 0x8, addend: 0x0, symName: __ZNSt3__110unique_ptrINS_11__tree_nodeINS_12basic_stringIcNS_11char_traitsIcEENS_9allocatorIcEEEEPvEENS_22__tree_node_destructorINS5_IS9_EEEEE5resetB7v160006EPS9_, symObjAddr: 0x4060, symBinAddr: 0x10000539C, symSize: 0x78 }
  - { offsetInCU: 0xF3B7, offset: 0xF3B7, size: 0x8, addend: 0x0, symName: __ZNSt3__122__tree_node_destructorINS_9allocatorINS_11__tree_nodeINS_12basic_stringIcNS_11char_traitsIcEENS1_IcEEEEPvEEEEEclB7v160006EPS9_, symObjAddr: 0x40D8, symBinAddr: 0x100005414, symSize: 0xA4 }
  - { offsetInCU: 0xF3EC, offset: 0xF3EC, size: 0x8, addend: 0x0, symName: __ZNSt3__116allocator_traitsINS_9allocatorINS_11__tree_nodeINS_12basic_stringIcNS_11char_traitsIcEENS1_IcEEEEPvEEEEE7destroyB7v160006IS7_vvEEvRSA_PT_, symObjAddr: 0x417C, symBinAddr: 0x1000054B8, symSize: 0x28 }
  - { offsetInCU: 0xF427, offset: 0xF427, size: 0x8, addend: 0x0, symName: __ZNSt3__116allocator_traitsINS_9allocatorINS_11__tree_nodeINS_12basic_stringIcNS_11char_traitsIcEENS1_IcEEEEPvEEEEE10deallocateB7v160006ERSA_PS9_m, symObjAddr: 0x41A4, symBinAddr: 0x1000054E0, symSize: 0x34 }
  - { offsetInCU: 0xF469, offset: 0xF469, size: 0x8, addend: 0x0, symName: __ZNSt3__19allocatorINS_11__tree_nodeINS_12basic_stringIcNS_11char_traitsIcEENS0_IcEEEEPvEEE10deallocateB7v160006EPS8_m, symObjAddr: 0x41D8, symBinAddr: 0x100005514, symSize: 0x74 }
  - { offsetInCU: 0xF4AB, offset: 0xF4AB, size: 0x8, addend: 0x0, symName: __ZNSt3__115__tree_iteratorINS_12basic_stringIcNS_11char_traitsIcEENS_9allocatorIcEEEEPNS_11__tree_nodeIS6_PvEElEC2B7v160006ESA_, symObjAddr: 0x424C, symBinAddr: 0x100005588, symSize: 0x20 }
  - { offsetInCU: 0xF4E4, offset: 0xF4E4, size: 0x8, addend: 0x0, symName: __ZNSt3__14pairINS_15__tree_iteratorINS_12basic_stringIcNS_11char_traitsIcEENS_9allocatorIcEEEEPNS_11__tree_nodeIS7_PvEElEEbEC2B7v160006ERKSC_RKb, symObjAddr: 0x426C, symBinAddr: 0x1000055A8, symSize: 0x38 }
  - { offsetInCU: 0xF52A, offset: 0xF52A, size: 0x8, addend: 0x0, symName: __ZNSt3__14pairINS_21__tree_const_iteratorINS_12basic_stringIcNS_11char_traitsIcEENS_9allocatorIcEEEEPNS_11__tree_nodeIS7_PvEElEEbEC2B7v160006INS_15__tree_iteratorIS7_SB_lEEbEERKNS0_IT_T0_EE, symObjAddr: 0x42A4, symBinAddr: 0x1000055E0, symSize: 0x50 }
  - { offsetInCU: 0xF574, offset: 0xF574, size: 0x8, addend: 0x0, symName: __ZNSt3__121__tree_const_iteratorINS_12basic_stringIcNS_11char_traitsIcEENS_9allocatorIcEEEEPNS_11__tree_nodeIS6_PvEElEC1B7v160006ENS_15__tree_iteratorIS6_SA_lEE, symObjAddr: 0x42F4, symBinAddr: 0x100005630, symSize: 0x34 }
  - { offsetInCU: 0xF5AD, offset: 0xF5AD, size: 0x8, addend: 0x0, symName: __ZNSt3__121__tree_const_iteratorINS_12basic_stringIcNS_11char_traitsIcEENS_9allocatorIcEEEEPNS_11__tree_nodeIS6_PvEElEC2B7v160006ENS_15__tree_iteratorIS6_SA_lEE, symObjAddr: 0x4328, symBinAddr: 0x100005664, symSize: 0x20 }
  - { offsetInCU: 0xF5E6, offset: 0xF5E6, size: 0x8, addend: 0x0, symName: __ZNSt3__13setINS_12basic_stringIcNS_11char_traitsIcEENS_9allocatorIcEEEENS_4lessIS6_EENS4_IS6_EEEC2B7v160006ERKSA_, symObjAddr: 0x4348, symBinAddr: 0x100005684, symSize: 0x90 }
  - { offsetInCU: 0xF61F, offset: 0xF61F, size: 0x8, addend: 0x0, symName: __ZNSt3__16__treeINS_12basic_stringIcNS_11char_traitsIcEENS_9allocatorIcEEEENS_4lessIS6_EENS4_IS6_EEEC1ERKSA_, symObjAddr: 0x43D8, symBinAddr: 0x100005714, symSize: 0x34 }
  - { offsetInCU: 0xF65A, offset: 0xF65A, size: 0x8, addend: 0x0, symName: __ZNSt3__13setINS_12basic_stringIcNS_11char_traitsIcEENS_9allocatorIcEEEENS_4lessIS6_EENS4_IS6_EEE6insertB7v160006INS_21__tree_const_iteratorIS6_PNS_11__tree_nodeIS6_PvEElEEEEvT_SI_, symObjAddr: 0x440C, symBinAddr: 0x100005748, symSize: 0x80 }
  - { offsetInCU: 0xF6C4, offset: 0xF6C4, size: 0x8, addend: 0x0, symName: __ZNKSt3__13setINS_12basic_stringIcNS_11char_traitsIcEENS_9allocatorIcEEEENS_4lessIS6_EENS4_IS6_EEE5beginB7v160006Ev, symObjAddr: 0x448C, symBinAddr: 0x1000057C8, symSize: 0x2C }
  - { offsetInCU: 0xF6EA, offset: 0xF6EA, size: 0x8, addend: 0x0, symName: __ZNKSt3__13setINS_12basic_stringIcNS_11char_traitsIcEENS_9allocatorIcEEEENS_4lessIS6_EENS4_IS6_EEE3endB7v160006Ev, symObjAddr: 0x44B8, symBinAddr: 0x1000057F4, symSize: 0x2C }
  - { offsetInCU: 0xF710, offset: 0xF710, size: 0x8, addend: 0x0, symName: __ZNSt3__16__treeINS_12basic_stringIcNS_11char_traitsIcEENS_9allocatorIcEEEENS_4lessIS6_EENS4_IS6_EEED1Ev, symObjAddr: 0x44E4, symBinAddr: 0x100005820, symSize: 0x2C }
  - { offsetInCU: 0xF73C, offset: 0xF73C, size: 0x8, addend: 0x0, symName: __ZNSt3__16__treeINS_12basic_stringIcNS_11char_traitsIcEENS_9allocatorIcEEEENS_4lessIS6_EENS4_IS6_EEEC2ERKSA_, symObjAddr: 0x4510, symBinAddr: 0x10000584C, symSize: 0x9C }
  - { offsetInCU: 0xF777, offset: 0xF777, size: 0x8, addend: 0x0, symName: __ZNSt3__116allocator_traitsINS_9allocatorINS_11__tree_nodeINS_12basic_stringIcNS_11char_traitsIcEENS1_IcEEEEPvEEEEE37select_on_container_copy_constructionB7v160006ISA_vvEESA_RKSA_, symObjAddr: 0x45AC, symBinAddr: 0x1000058E8, symSize: 0x10 }
  - { offsetInCU: 0xF7A6, offset: 0xF7A6, size: 0x8, addend: 0x0, symName: __ZNKSt3__16__treeINS_12basic_stringIcNS_11char_traitsIcEENS_9allocatorIcEEEENS_4lessIS6_EENS4_IS6_EEE12__node_allocB7v160006Ev, symObjAddr: 0x45BC, symBinAddr: 0x1000058F8, symSize: 0x28 }
  - { offsetInCU: 0xF7D1, offset: 0xF7D1, size: 0x8, addend: 0x0, symName: __ZNSt3__117__compressed_pairINS_15__tree_end_nodeIPNS_16__tree_node_baseIPvEEEENS_9allocatorINS_11__tree_nodeINS_12basic_stringIcNS_11char_traitsIcEENS7_IcEEEES3_EEEEEC1B7v160006INS_18__default_init_tagESF_EEOT_OT0_, symObjAddr: 0x45E4, symBinAddr: 0x100005920, symSize: 0x3C }
  - { offsetInCU: 0xF829, offset: 0xF829, size: 0x8, addend: 0x0, symName: __ZNKSt3__16__treeINS_12basic_stringIcNS_11char_traitsIcEENS_9allocatorIcEEEENS_4lessIS6_EENS4_IS6_EEE10value_compB7v160006Ev, symObjAddr: 0x4620, symBinAddr: 0x10000595C, symSize: 0x28 }
  - { offsetInCU: 0xF854, offset: 0xF854, size: 0x8, addend: 0x0, symName: __ZNSt3__117__compressed_pairImNS_4lessINS_12basic_stringIcNS_11char_traitsIcEENS_9allocatorIcEEEEEEEC1B7v160006IiRKS8_EEOT_OT0_, symObjAddr: 0x4648, symBinAddr: 0x100005984, symSize: 0x3C }
  - { offsetInCU: 0xF8AC, offset: 0xF8AC, size: 0x8, addend: 0x0, symName: __ZNKSt3__117__compressed_pairINS_15__tree_end_nodeIPNS_16__tree_node_baseIPvEEEENS_9allocatorINS_11__tree_nodeINS_12basic_stringIcNS_11char_traitsIcEENS7_IcEEEES3_EEEEE6secondB7v160006Ev, symObjAddr: 0x4684, symBinAddr: 0x1000059C0, symSize: 0x24 }
  - { offsetInCU: 0xF8D2, offset: 0xF8D2, size: 0x8, addend: 0x0, symName: __ZNKSt3__122__compressed_pair_elemINS_9allocatorINS_11__tree_nodeINS_12basic_stringIcNS_11char_traitsIcEENS1_IcEEEEPvEEEELi1ELb1EE5__getB7v160006Ev, symObjAddr: 0x46A8, symBinAddr: 0x1000059E4, symSize: 0x14 }
  - { offsetInCU: 0xF8F8, offset: 0xF8F8, size: 0x8, addend: 0x0, symName: __ZNSt3__117__compressed_pairINS_15__tree_end_nodeIPNS_16__tree_node_baseIPvEEEENS_9allocatorINS_11__tree_nodeINS_12basic_stringIcNS_11char_traitsIcEENS7_IcEEEES3_EEEEEC2B7v160006INS_18__default_init_tagESF_EEOT_OT0_, symObjAddr: 0x46BC, symBinAddr: 0x1000059F8, symSize: 0x40 }
  - { offsetInCU: 0xF950, offset: 0xF950, size: 0x8, addend: 0x0, symName: __ZNSt3__122__compressed_pair_elemINS_15__tree_end_nodeIPNS_16__tree_node_baseIPvEEEELi0ELb0EEC2B7v160006ENS_18__default_init_tagE, symObjAddr: 0x46FC, symBinAddr: 0x100005A38, symSize: 0x2C }
  - { offsetInCU: 0xF984, offset: 0xF984, size: 0x8, addend: 0x0, symName: __ZNSt3__122__compressed_pair_elemINS_9allocatorINS_11__tree_nodeINS_12basic_stringIcNS_11char_traitsIcEENS1_IcEEEEPvEEEELi1ELb1EEC2B7v160006ISA_vEEOT_, symObjAddr: 0x4728, symBinAddr: 0x100005A64, symSize: 0x18 }
  - { offsetInCU: 0xF9C6, offset: 0xF9C6, size: 0x8, addend: 0x0, symName: __ZNSt3__115__tree_end_nodeIPNS_16__tree_node_baseIPvEEEC1B7v160006Ev, symObjAddr: 0x4740, symBinAddr: 0x100005A7C, symSize: 0x2C }
  - { offsetInCU: 0xF9F0, offset: 0xF9F0, size: 0x8, addend: 0x0, symName: __ZNSt3__115__tree_end_nodeIPNS_16__tree_node_baseIPvEEEC2B7v160006Ev, symObjAddr: 0x476C, symBinAddr: 0x100005AA8, symSize: 0x18 }
  - { offsetInCU: 0xFA1A, offset: 0xFA1A, size: 0x8, addend: 0x0, symName: __ZNKSt3__117__compressed_pairImNS_4lessINS_12basic_stringIcNS_11char_traitsIcEENS_9allocatorIcEEEEEEE6secondB7v160006Ev, symObjAddr: 0x4784, symBinAddr: 0x100005AC0, symSize: 0x24 }
  - { offsetInCU: 0xFA40, offset: 0xFA40, size: 0x8, addend: 0x0, symName: __ZNKSt3__122__compressed_pair_elemINS_4lessINS_12basic_stringIcNS_11char_traitsIcEENS_9allocatorIcEEEEEELi1ELb1EE5__getB7v160006Ev, symObjAddr: 0x47A8, symBinAddr: 0x100005AE4, symSize: 0x14 }
  - { offsetInCU: 0xFA66, offset: 0xFA66, size: 0x8, addend: 0x0, symName: __ZNSt3__117__compressed_pairImNS_4lessINS_12basic_stringIcNS_11char_traitsIcEENS_9allocatorIcEEEEEEEC2B7v160006IiRKS8_EEOT_OT0_, symObjAddr: 0x47BC, symBinAddr: 0x100005AF8, symSize: 0x44 }
  - { offsetInCU: 0xFABE, offset: 0xFABE, size: 0x8, addend: 0x0, symName: __ZNSt3__122__compressed_pair_elemImLi0ELb0EEC2B7v160006IivEEOT_, symObjAddr: 0x4800, symBinAddr: 0x100005B3C, symSize: 0x24 }
  - { offsetInCU: 0xFB00, offset: 0xFB00, size: 0x8, addend: 0x0, symName: __ZNSt3__122__compressed_pair_elemINS_4lessINS_12basic_stringIcNS_11char_traitsIcEENS_9allocatorIcEEEEEELi1ELb1EEC2B7v160006IRKS8_vEEOT_, symObjAddr: 0x4824, symBinAddr: 0x100005B60, symSize: 0x18 }
  - { offsetInCU: 0xFB42, offset: 0xFB42, size: 0x8, addend: 0x0, symName: __ZNKSt3__13setINS_12basic_stringIcNS_11char_traitsIcEENS_9allocatorIcEEEENS_4lessIS6_EENS4_IS6_EEE4cendB7v160006Ev, symObjAddr: 0x483C, symBinAddr: 0x100005B78, symSize: 0x2C }
  - { offsetInCU: 0xFB68, offset: 0xFB68, size: 0x8, addend: 0x0, symName: __ZNSt3__16__treeINS_12basic_stringIcNS_11char_traitsIcEENS_9allocatorIcEEEENS_4lessIS6_EENS4_IS6_EEE15__insert_uniqueB7v160006ENS_21__tree_const_iteratorIS6_PNS_11__tree_nodeIS6_PvEElEERKS6_, symObjAddr: 0x4868, symBinAddr: 0x100005BA4, symSize: 0x64 }
  - { offsetInCU: 0xFBAC, offset: 0xFBAC, size: 0x8, addend: 0x0, symName: __ZNSt3__16__treeINS_12basic_stringIcNS_11char_traitsIcEENS_9allocatorIcEEEENS_4lessIS6_EENS4_IS6_EEE30__emplace_hint_unique_key_argsIS6_JRKS6_EEENS_4pairINS_15__tree_iteratorIS6_PNS_11__tree_nodeIS6_PvEElEEbEENS_21__tree_const_iteratorIS6_SJ_lEERKT_DpOT0_, symObjAddr: 0x48CC, symBinAddr: 0x100005C08, symSize: 0x104 }
  - { offsetInCU: 0xFC78, offset: 0xFC78, size: 0x8, addend: 0x0, symName: __ZNSt3__16__treeINS_12basic_stringIcNS_11char_traitsIcEENS_9allocatorIcEEEENS_4lessIS6_EENS4_IS6_EEE12__find_equalIS6_EERPNS_16__tree_node_baseIPvEENS_21__tree_const_iteratorIS6_PNS_11__tree_nodeIS6_SD_EElEERPNS_15__tree_end_nodeISF_EESG_RKT_, symObjAddr: 0x49D0, symBinAddr: 0x100005D0C, symSize: 0x304 }
  - { offsetInCU: 0xFD21, offset: 0xFD21, size: 0x8, addend: 0x0, symName: __ZNSt3__16__treeINS_12basic_stringIcNS_11char_traitsIcEENS_9allocatorIcEEEENS_4lessIS6_EENS4_IS6_EEE3endB7v160006Ev, symObjAddr: 0x4D04, symBinAddr: 0x100006040, symSize: 0x34 }
  - { offsetInCU: 0xFD47, offset: 0xFD47, size: 0x8, addend: 0x0, symName: __ZNSt3__16__treeINS_12basic_stringIcNS_11char_traitsIcEENS_9allocatorIcEEEENS_4lessIS6_EENS4_IS6_EEE5beginB7v160006Ev, symObjAddr: 0x4D38, symBinAddr: 0x100006074, symSize: 0x34 }
  - { offsetInCU: 0xFD6D, offset: 0xFD6D, size: 0x8, addend: 0x0, symName: __ZNSt3__121__tree_const_iteratorINS_12basic_stringIcNS_11char_traitsIcEENS_9allocatorIcEEEEPNS_11__tree_nodeIS6_PvEElEmmB7v160006Ev, symObjAddr: 0x4D6C, symBinAddr: 0x1000060A8, symSize: 0x38 }
  - { offsetInCU: 0xFD93, offset: 0xFD93, size: 0x8, addend: 0x0, symName: __ZNKSt3__121__tree_const_iteratorINS_12basic_stringIcNS_11char_traitsIcEENS_9allocatorIcEEEEPNS_11__tree_nodeIS6_PvEElE8__get_npB7v160006Ev, symObjAddr: 0x4DF4, symBinAddr: 0x100006130, symSize: 0x18 }
  - { offsetInCU: 0xFDB9, offset: 0xFDB9, size: 0x8, addend: 0x0, symName: __ZNSt3__115__tree_iteratorINS_12basic_stringIcNS_11char_traitsIcEENS_9allocatorIcEEEEPNS_11__tree_nodeIS6_PvEElEC1B7v160006EPNS_15__tree_end_nodeIPNS_16__tree_node_baseIS8_EEEE, symObjAddr: 0x4E0C, symBinAddr: 0x100006148, symSize: 0x34 }
  - { offsetInCU: 0xFDF2, offset: 0xFDF2, size: 0x8, addend: 0x0, symName: __ZNSt3__115__tree_iteratorINS_12basic_stringIcNS_11char_traitsIcEENS_9allocatorIcEEEEPNS_11__tree_nodeIS6_PvEElEC2B7v160006EPNS_15__tree_end_nodeIPNS_16__tree_node_baseIS8_EEEE, symObjAddr: 0x4E40, symBinAddr: 0x10000617C, symSize: 0x20 }
  - { offsetInCU: 0xFE2B, offset: 0xFE2B, size: 0x8, addend: 0x0, symName: __ZNKSt3__16__treeINS_12basic_stringIcNS_11char_traitsIcEENS_9allocatorIcEEEENS_4lessIS6_EENS4_IS6_EEE5beginB7v160006Ev, symObjAddr: 0x5030, symBinAddr: 0x10000636C, symSize: 0x34 }
  - { offsetInCU: 0xFE51, offset: 0xFE51, size: 0x8, addend: 0x0, symName: __ZNKSt3__16__treeINS_12basic_stringIcNS_11char_traitsIcEENS_9allocatorIcEEEENS_4lessIS6_EENS4_IS6_EEE12__begin_nodeB7v160006Ev, symObjAddr: 0x5064, symBinAddr: 0x1000063A0, symSize: 0x14 }
  - { offsetInCU: 0xFE77, offset: 0xFE77, size: 0x8, addend: 0x0, symName: __ZNSt3__121__tree_const_iteratorINS_12basic_stringIcNS_11char_traitsIcEENS_9allocatorIcEEEEPNS_11__tree_nodeIS6_PvEElEC1B7v160006EPNS_15__tree_end_nodeIPNS_16__tree_node_baseIS8_EEEE, symObjAddr: 0x5078, symBinAddr: 0x1000063B4, symSize: 0x34 }
  - { offsetInCU: 0xFEB0, offset: 0xFEB0, size: 0x8, addend: 0x0, symName: __ZNSt3__121__tree_const_iteratorINS_12basic_stringIcNS_11char_traitsIcEENS_9allocatorIcEEEEPNS_11__tree_nodeIS6_PvEElEC2B7v160006EPNS_15__tree_end_nodeIPNS_16__tree_node_baseIS8_EEEE, symObjAddr: 0x50AC, symBinAddr: 0x1000063E8, symSize: 0x20 }
  - { offsetInCU: 0xFEE9, offset: 0xFEE9, size: 0x8, addend: 0x0, symName: __ZNKSt3__16__treeINS_12basic_stringIcNS_11char_traitsIcEENS_9allocatorIcEEEENS_4lessIS6_EENS4_IS6_EEE3endB7v160006Ev, symObjAddr: 0x50CC, symBinAddr: 0x100006408, symSize: 0x34 }
  - { offsetInCU: 0xFF0F, offset: 0xFF0F, size: 0x8, addend: 0x0, symName: __ZNSt3__16__treeINS_12basic_stringIcNS_11char_traitsIcEENS_9allocatorIcEEEENS_4lessIS6_EENS4_IS6_EEED2Ev, symObjAddr: 0x5100, symBinAddr: 0x10000643C, symSize: 0x38 }
  - { offsetInCU: 0xFF3B, offset: 0xFF3B, size: 0x8, addend: 0x0, symName: __ZNSt3__16__treeINS_12basic_stringIcNS_11char_traitsIcEENS_9allocatorIcEEEENS_4lessIS6_EENS4_IS6_EEE7destroyEPNS_11__tree_nodeIS6_PvEE, symObjAddr: 0x5138, symBinAddr: 0x100006474, symSize: 0xB8 }
  - { offsetInCU: 0xFF8F, offset: 0xFF8F, size: 0x8, addend: 0x0, symName: __ZNSt3__13setINS_12basic_stringIcNS_11char_traitsIcEENS_9allocatorIcEEEENS_4lessIS6_EENS4_IS6_EEED2B7v160006Ev, symObjAddr: 0x51F0, symBinAddr: 0x10000652C, symSize: 0x2C }
  - { offsetInCU: 0xFFB9, offset: 0xFFB9, size: 0x8, addend: 0x0, symName: __ZNSt3__13setINS_12basic_stringIcNS_11char_traitsIcEENS_9allocatorIcEEEENS_4lessIS6_EENS4_IS6_EEEC2B7v160006Ev, symObjAddr: 0x521C, symBinAddr: 0x100006558, symSize: 0x30 }
  - { offsetInCU: 0xFFE3, offset: 0xFFE3, size: 0x8, addend: 0x0, symName: __ZNSt3__16__treeINS_12basic_stringIcNS_11char_traitsIcEENS_9allocatorIcEEEENS_4lessIS6_EENS4_IS6_EEEC1ERKS8_, symObjAddr: 0x524C, symBinAddr: 0x100006588, symSize: 0x34 }
  - { offsetInCU: 0x1001E, offset: 0x1001E, size: 0x8, addend: 0x0, symName: __ZNSt3__16__treeINS_12basic_stringIcNS_11char_traitsIcEENS_9allocatorIcEEEENS_4lessIS6_EENS4_IS6_EEEC2ERKS8_, symObjAddr: 0x5280, symBinAddr: 0x1000065BC, symSize: 0x70 }
  - { offsetInCU: 0x10059, offset: 0x10059, size: 0x8, addend: 0x0, symName: __ZNSt3__117__compressed_pairINS_15__tree_end_nodeIPNS_16__tree_node_baseIPvEEEENS_9allocatorINS_11__tree_nodeINS_12basic_stringIcNS_11char_traitsIcEENS7_IcEEEES3_EEEEEC1B7v160006ILb1EvEEv, symObjAddr: 0x52F0, symBinAddr: 0x10000662C, symSize: 0x2C }
  - { offsetInCU: 0x1008E, offset: 0x1008E, size: 0x8, addend: 0x0, symName: __ZNSt3__117__compressed_pairINS_15__tree_end_nodeIPNS_16__tree_node_baseIPvEEEENS_9allocatorINS_11__tree_nodeINS_12basic_stringIcNS_11char_traitsIcEENS7_IcEEEES3_EEEEEC2B7v160006ILb1EvEEv, symObjAddr: 0x531C, symBinAddr: 0x100006658, symSize: 0x34 }
  - { offsetInCU: 0x100C3, offset: 0x100C3, size: 0x8, addend: 0x0, symName: __ZNSt3__122__compressed_pair_elemINS_15__tree_end_nodeIPNS_16__tree_node_baseIPvEEEELi0ELb0EEC2B7v160006ENS_16__value_init_tagE, symObjAddr: 0x5350, symBinAddr: 0x10000668C, symSize: 0x2C }
  - { offsetInCU: 0x100F7, offset: 0x100F7, size: 0x8, addend: 0x0, symName: __ZNSt3__122__compressed_pair_elemINS_9allocatorINS_11__tree_nodeINS_12basic_stringIcNS_11char_traitsIcEENS1_IcEEEEPvEEEELi1ELb1EEC2B7v160006ENS_16__value_init_tagE, symObjAddr: 0x537C, symBinAddr: 0x1000066B8, symSize: 0x2C }
  - { offsetInCU: 0x1012B, offset: 0x1012B, size: 0x8, addend: 0x0, symName: __ZNSt3__19allocatorINS_11__tree_nodeINS_12basic_stringIcNS_11char_traitsIcEENS0_IcEEEEPvEEEC2B7v160006Ev, symObjAddr: 0x53A8, symBinAddr: 0x1000066E4, symSize: 0x2C }
  - { offsetInCU: 0x10155, offset: 0x10155, size: 0x8, addend: 0x0, symName: __ZNSt3__116__non_trivial_ifILb1ENS_9allocatorINS_11__tree_nodeINS_12basic_stringIcNS_11char_traitsIcEENS1_IcEEEEPvEEEEEC2B7v160006Ev, symObjAddr: 0x53D4, symBinAddr: 0x100006710, symSize: 0x14 }
  - { offsetInCU: 0x10189, offset: 0x10189, size: 0x8, addend: 0x0, symName: __ZNSt3__115insert_iteratorINS_3setINS_12basic_stringIcNS_11char_traitsIcEENS_9allocatorIcEEEENS_4lessIS7_EENS5_IS7_EEEEEC1B7v160006ERSB_NS_21__tree_const_iteratorIS7_PNS_11__tree_nodeIS7_PvEElEE, symObjAddr: 0x53E8, symBinAddr: 0x100006724, symSize: 0x3C }
  - { offsetInCU: 0x101CF, offset: 0x101CF, size: 0x8, addend: 0x0, symName: __ZNSt3__115insert_iteratorINS_3setINS_12basic_stringIcNS_11char_traitsIcEENS_9allocatorIcEEEENS_4lessIS7_EENS5_IS7_EEEEEC2B7v160006ERSB_NS_21__tree_const_iteratorIS7_PNS_11__tree_nodeIS7_PvEElEE, symObjAddr: 0x5424, symBinAddr: 0x100006760, symSize: 0x2C }
  - { offsetInCU: 0x1021F, offset: 0x1021F, size: 0x8, addend: 0x0, symName: __ZNKSt3__16__lessINS_12basic_stringIcNS_11char_traitsIcEENS_9allocatorIcEEEES6_EclB7v160006ERKS6_S9_, symObjAddr: 0x55E4, symBinAddr: 0x100006920, symSize: 0x34 }
  - { offsetInCU: 0x10261, offset: 0x10261, size: 0x8, addend: 0x0, symName: __ZNSt3__115insert_iteratorINS_3setINS_12basic_stringIcNS_11char_traitsIcEENS_9allocatorIcEEEENS_4lessIS7_EENS5_IS7_EEEEEdeB7v160006Ev, symObjAddr: 0x5618, symBinAddr: 0x100006954, symSize: 0x14 }
  - { offsetInCU: 0x10287, offset: 0x10287, size: 0x8, addend: 0x0, symName: __ZNSt3__115insert_iteratorINS_3setINS_12basic_stringIcNS_11char_traitsIcEENS_9allocatorIcEEEENS_4lessIS7_EENS5_IS7_EEEEEaSB7v160006ERKS7_, symObjAddr: 0x562C, symBinAddr: 0x100006968, symSize: 0x5C }
  - { offsetInCU: 0x102BB, offset: 0x102BB, size: 0x8, addend: 0x0, symName: __ZNSt3__115insert_iteratorINS_3setINS_12basic_stringIcNS_11char_traitsIcEENS_9allocatorIcEEEENS_4lessIS7_EENS5_IS7_EEEEEppB7v160006Ev, symObjAddr: 0x5688, symBinAddr: 0x1000069C4, symSize: 0x14 }
  - { offsetInCU: 0x102E1, offset: 0x102E1, size: 0x8, addend: 0x0, symName: __ZNSt3__18_IterOpsINS_17_ClassicAlgPolicyEE4nextB7v160006INS_21__tree_const_iteratorINS_12basic_stringIcNS_11char_traitsIcEENS_9allocatorIcEEEEPNS_11__tree_nodeISA_PvEElEEEET_SG_SG_, symObjAddr: 0x569C, symBinAddr: 0x1000069D8, symSize: 0x20 }
  - { offsetInCU: 0x10326, offset: 0x10326, size: 0x8, addend: 0x0, symName: __ZNSt3__125__set_intersection_resultINS_21__tree_const_iteratorINS_12basic_stringIcNS_11char_traitsIcEENS_9allocatorIcEEEEPNS_11__tree_nodeIS7_PvEElEESC_NS_15insert_iteratorINS_3setIS7_NS_4lessIS7_EENS5_IS7_EEEEEEEC1B7v160006EOSC_SL_OSJ_, symObjAddr: 0x56BC, symBinAddr: 0x1000069F8, symSize: 0x44 }
  - { offsetInCU: 0x1037A, offset: 0x1037A, size: 0x8, addend: 0x0, symName: __ZNSt3__13setINS_12basic_stringIcNS_11char_traitsIcEENS_9allocatorIcEEEENS_4lessIS6_EENS4_IS6_EEE6insertB7v160006ENS_21__tree_const_iteratorIS6_PNS_11__tree_nodeIS6_PvEElEERKS6_, symObjAddr: 0x5700, symBinAddr: 0x100006A3C, symSize: 0x50 }
  - { offsetInCU: 0x103BE, offset: 0x103BE, size: 0x8, addend: 0x0, symName: __ZNSt3__125__set_intersection_resultINS_21__tree_const_iteratorINS_12basic_stringIcNS_11char_traitsIcEENS_9allocatorIcEEEEPNS_11__tree_nodeIS7_PvEElEESC_NS_15insert_iteratorINS_3setIS7_NS_4lessIS7_EENS5_IS7_EEEEEEEC2B7v160006EOSC_SL_OSJ_, symObjAddr: 0x5750, symBinAddr: 0x100006A8C, symSize: 0x44 }
  - { offsetInCU: 0x10412, offset: 0x10412, size: 0x8, addend: 0x0, symName: __ZNSt3__16__treeINS_12basic_stringIcNS_11char_traitsIcEENS_9allocatorIcEEEENS_4lessIS6_EENS4_IS6_EEE4swapERSA_, symObjAddr: 0x5794, symBinAddr: 0x100006AD0, symSize: 0x164 }
  - { offsetInCU: 0x10449, offset: 0x10449, size: 0x8, addend: 0x0, symName: __ZNSt3__117__compressed_pairImNS_4lessINS_12basic_stringIcNS_11char_traitsIcEENS_9allocatorIcEEEEEEE4swapB7v160006ERS9_, symObjAddr: 0x599C, symBinAddr: 0x100006CD8, symSize: 0x64 }
  - { offsetInCU: 0x1047D, offset: 0x1047D, size: 0x8, addend: 0x0, symName: __ZNKSt3__16__treeINS_12basic_stringIcNS_11char_traitsIcEENS_9allocatorIcEEEENS_4lessIS6_EENS4_IS6_EEE4sizeB7v160006Ev, symObjAddr: 0x5A64, symBinAddr: 0x100006DA0, symSize: 0x28 }
  - { offsetInCU: 0x104A3, offset: 0x104A3, size: 0x8, addend: 0x0, symName: __ZNKSt3__117__compressed_pairImNS_4lessINS_12basic_stringIcNS_11char_traitsIcEENS_9allocatorIcEEEEEEE5firstB7v160006Ev, symObjAddr: 0x5A8C, symBinAddr: 0x100006DC8, symSize: 0x24 }
  - { offsetInCU: 0x104C9, offset: 0x104C9, size: 0x8, addend: 0x0, symName: __ZNKSt3__122__compressed_pair_elemImLi0ELb0EE5__getB7v160006Ev, symObjAddr: 0x5AB0, symBinAddr: 0x100006DEC, symSize: 0x14 }
  - { offsetInCU: 0x1050D, offset: 0x1050D, size: 0x8, addend: 0x0, symName: __ZNKSt3__113basic_ostreamIcNS_11char_traitsIcEEE6sentrycvbB7v160006Ev, symObjAddr: 0x5D78, symBinAddr: 0x1000070B4, symSize: 0x1C }
  - { offsetInCU: 0x10533, offset: 0x10533, size: 0x8, addend: 0x0, symName: __ZNSt3__119ostreambuf_iteratorIcNS_11char_traitsIcEEEC1B7v160006ERNS_13basic_ostreamIcS2_EE, symObjAddr: 0x5FDC, symBinAddr: 0x100007318, symSize: 0x34 }
  - { offsetInCU: 0x1056B, offset: 0x1056B, size: 0x8, addend: 0x0, symName: __ZNKSt3__18ios_base5flagsB7v160006Ev, symObjAddr: 0x6010, symBinAddr: 0x10000734C, symSize: 0x18 }
  - { offsetInCU: 0x10593, offset: 0x10593, size: 0x8, addend: 0x0, symName: __ZNKSt3__19basic_iosIcNS_11char_traitsIcEEE4fillB7v160006Ev, symObjAddr: 0x6028, symBinAddr: 0x100007364, symSize: 0x64 }
  - { offsetInCU: 0x105BB, offset: 0x105BB, size: 0x8, addend: 0x0, symName: __ZNKSt3__119ostreambuf_iteratorIcNS_11char_traitsIcEEE6failedB7v160006Ev, symObjAddr: 0x608C, symBinAddr: 0x1000073C8, symSize: 0x24 }
  - { offsetInCU: 0x105E1, offset: 0x105E1, size: 0x8, addend: 0x0, symName: __ZNSt3__115basic_streambufIcNS_11char_traitsIcEEE5sputnB7v160006EPKcl, symObjAddr: 0x60B0, symBinAddr: 0x1000073EC, symSize: 0x3C }
  - { offsetInCU: 0x10623, offset: 0x10623, size: 0x8, addend: 0x0, symName: __ZNSt3__112basic_stringIcNS_11char_traitsIcEENS_9allocatorIcEEEC1B7v160006Emc, symObjAddr: 0x60EC, symBinAddr: 0x100007428, symSize: 0x3C }
  - { offsetInCU: 0x1066B, offset: 0x1066B, size: 0x8, addend: 0x0, symName: __ZNSt3__112basic_stringIcNS_11char_traitsIcEENS_9allocatorIcEEEC2B7v160006Emc, symObjAddr: 0x6128, symBinAddr: 0x100007464, symSize: 0x54 }
  - { offsetInCU: 0x106B3, offset: 0x106B3, size: 0x8, addend: 0x0, symName: __ZNSt3__119ostreambuf_iteratorIcNS_11char_traitsIcEEEC2B7v160006ERNS_13basic_ostreamIcS2_EE, symObjAddr: 0x617C, symBinAddr: 0x1000074B8, symSize: 0x68 }
  - { offsetInCU: 0x106EB, offset: 0x106EB, size: 0x8, addend: 0x0, symName: __ZNKSt3__19basic_iosIcNS_11char_traitsIcEEE5widenB7v160006Ec, symObjAddr: 0x61E4, symBinAddr: 0x100007520, symSize: 0x8C }
  - { offsetInCU: 0x10722, offset: 0x10722, size: 0x8, addend: 0x0, symName: __ZNKSt3__15ctypeIcE5widenB7v160006Ec, symObjAddr: 0x6270, symBinAddr: 0x1000075AC, symSize: 0x38 }
...
